ccollections
defaultdict
p0
(c__builtin__
dict
p1
tp2
Rp3
S'dropout_prob'
p4
(dp5
cnumpy.core.multiarray
scalar
p6
(cnumpy
dtype
p7
(S'f8'
p8
I0
I1
tp9
Rp10
(I3
S'<'
p11
NNNI-1
I-1
I0
tp12
bS'\x00\x00\x00\x00\x00\x00\xe0?'
p13
tp14
Rp15
(lp16
F0.54
aF0.464
aF0.54
aF0.558
aF0.54
aF0.542
aF0.542
aF0.53
aF0.514
aF0.488
aF0.53
aF0.544
aF0.478
aF0.492
aF0.486
aF0.506
aF0.514
aF0.48
aF0.462
aF0.458
aF0.456
aF0.468
aF0.496
aF0.524
aF0.542
aF0.514
aF0.504
aF0.526
aF0.526
aF0.522
aF0.512
aF0.508
aF0.51
aF0.52
aF0.516
aF0.538
aF0.54
aF0.54
aF0.54
aF0.484
aF0.416
aF0.436
aF0.436
aF0.458
aF0.474
aF0.522
aF0.524
aF0.536
aF0.542
aF0.534
aF0.558
aF0.496
aF0.476
aF0.49
aF0.49
aF0.478
aF0.51
aF0.504
aF0.522
aF0.518
aF0.534
aF0.54
aF0.542
aF0.558
aF0.558
aF0.536
aF0.514
aF0.492
aF0.472
aF0.482
aF0.442
aF0.486
aF0.482
aF0.454
aF0.468
aF0.496
aF0.51
aF0.516
aF0.57
aF0.548
aF0.548
aF0.548
aF0.506
aF0.482
aF0.496
aF0.484
aF0.47
aF0.482
aF0.492
aF0.526
aF0.534
aF0.532
aF0.478
aF0.46
aF0.516
aF0.538
aF0.538
aF0.54
aF0.546
aF0.552
aF0.57
aF0.58
aF0.55
aF0.518
aF0.5
aF0.486
aF0.482
aF0.504
aF0.52
aF0.544
aF0.534
aF0.518
aF0.508
aF0.502
aF0.518
aF0.538
aF0.532
aF0.558
aF0.546
aF0.538
aF0.528
aF0.522
aF0.488
aF0.492
aF0.478
aF0.486
aF0.516
aF0.522
aF0.518
aF0.524
aF0.522
aF0.518
aF0.508
aF0.53
aF0.526
aF0.54
aF0.552
aF0.54
aF0.528
aF0.522
aF0.526
aF0.53
aF0.514
aF0.53
aF0.542
aF0.496
aF0.498
aF0.492
aF0.488
aF0.476
aF0.472
aF0.468
aF0.474
aF0.478
aF0.474
aF0.51
aF0.526
aF0.522
aF0.51
aF0.518
aF0.532
aF0.522
aF0.494
aF0.476
aF0.472
aF0.48
aF0.532
aF0.54
aF0.536
aF0.548
aF0.54
aF0.528
aF0.516
aF0.542
aF0.542
aF0.54
aF0.532
aF0.542
aF0.512
aF0.514
aF0.526
aF0.526
aF0.532
aF0.528
aF0.526
aF0.524
aF0.52
aF0.478
aF0.466
aF0.474
aF0.486
aF0.496
aF0.494
aF0.51
aF0.498
aF0.498
aF0.478
aF0.48
aF0.476
aF0.462
aF0.462
aF0.468
aF0.5
aF0.502
aF0.508
aF0.522
aF0.512
aF0.512
aF0.538
aF0.54
aF0.54
aF0.54
aF0.532
aF0.508
aF0.498
aF0.492
aF0.522
aF0.51
aF0.514
aF0.516
aF0.516
aF0.516
aF0.518
aF0.536
aF0.54
aF0.524
aF0.522
aF0.512
aF0.51
aF0.534
aF0.53
aF0.542
aF0.54
aF0.54
aF0.506
aF0.47
aF0.462
aF0.46
aF0.45
aF0.442
aF0.472
aF0.554
aF0.54
aF0.54
aF0.538
aF0.524
aF0.442
aF0.428
aF0.454
aF0.45
aF0.452
aF0.456
aF0.466
aF0.552
aF0.536
aF0.54
aF0.552
aF0.54
aF0.532
aF0.46
aF0.476
aF0.45
aF0.466
aF0.456
aF0.456
aF0.466
aF0.464
aF0.456
aF0.462
aF0.474
aF0.536
aF0.518
aF0.514
aF0.518
aF0.506
aF0.5
aF0.474
aF0.516
aF0.526
aF0.54
aF0.536
aF0.53
aF0.516
aF0.518
aF0.518
aF0.538
aF0.54
aF0.54
aF0.538
aF0.534
aF0.524
aF0.512
aF0.502
aF0.536
aF0.528
aF0.542
aF0.542
aF0.542
aF0.54
aF0.542
aF0.54
aF0.57
aF0.534
aF0.452
aF0.448
aF0.456
aF0.476
aF0.478
aF0.456
aF0.458
aF0.45
aF0.444
aF0.452
aF0.55
aF0.568
aF0.546
aF0.538
aF0.532
aF0.528
aF0.526
aF0.526
aF0.526
aF0.528
aF0.53
aF0.528
aF0.54
aF0.554
aF0.55
aF0.55
aF0.478
aF0.472
aF0.48
aF0.498
aF0.486
aF0.496
aF0.51
aF0.498
aF0.458
aF0.448
aF0.442
aF0.446
aF0.454
aF0.464
aF0.5
aF0.538
aF0.536
aF0.53
aF0.54
aF0.538
aF0.536
aF0.54
aF0.528
aF0.536
aF0.542
aF0.552
aF0.55
aF0.54
aF0.544
aF0.554
aF0.504
aF0.488
aF0.474
aF0.46
aF0.466
aF0.472
aF0.47
aF0.478
aF0.48
aF0.482
aF0.474
aF0.476
aF0.462
aF0.452
aF0.49
aF0.488
aF0.478
aF0.494
aF0.5
aF0.506
aF0.532
aF0.512
aF0.514
aF0.492
aF0.502
aF0.502
aF0.482
aF0.476
aF0.472
aF0.464
aF0.46
aF0.464
aF0.476
aF0.518
aF0.516
aF0.524
aF0.514
aF0.52
aF0.504
aF0.504
aF0.514
aF0.524
aF0.522
aF0.52
aF0.526
aF0.524
aF0.512
aF0.516
aF0.514
aF0.52
aF0.52
aF0.532
aF0.518
aF0.522
aF0.522
aF0.524
aF0.532
aF0.526
aF0.53
aF0.528
aF0.508
aF0.498
aF0.474
aF0.476
aF0.48
aF0.488
aF0.486
aF0.464
aF0.45
aF0.446
aF0.448
aF0.456
aF0.462
aF0.492
aF0.5
aF0.492
aF0.458
aF0.476
aF0.534
aF0.54
aF0.538
aF0.54
aF0.53
aF0.534
aF0.5
aF0.49
aF0.476
aF0.484
aF0.484
aF0.476
aF0.472
aF0.466
aF0.468
aF0.464
aF0.49
aF0.51
aF0.514
aF0.522
aF0.534
aF0.532
aF0.538
aF0.536
aF0.546
aF0.544
aF0.54
aF0.54
aF0.54
aF0.512
aF0.482
aF0.464
aF0.468
aF0.488
aF0.5
aF0.496
aF0.524
aF0.518
aF0.492
aF0.47
aF0.492
aF0.496
aF0.496
aF0.492
aF0.512
aF0.49
aF0.472
aF0.498
aF0.502
aF0.508
aF0.51
aF0.51
aF0.496
aF0.496
aF0.514
aF0.52
aF0.526
aF0.53
aF0.54
aF0.54
aF0.54
aF0.538
aF0.54
aF0.54
aF0.526
aF0.522
aF0.504
aF0.474
aF0.47
aF0.468
aF0.462
aF0.486
aF0.484
aF0.508
aF0.506
aF0.51
aF0.476
aF0.5
aF0.496
aF0.492
aF0.494
aF0.486
aF0.484
aF0.506
aF0.522
aF0.542
aF0.538
aF0.504
aF0.508
aF0.502
aF0.506
aF0.518
aF0.524
aF0.538
aF0.528
aF0.496
aF0.506
aF0.51
aF0.522
aF0.514
aF0.52
aF0.518
aF0.492
aF0.482
aF0.474
aF0.472
aF0.456
aF0.448
aF0.446
aF0.442
aF0.448
aF0.452
aF0.454
aF0.458
aF0.462
aF0.456
aF0.46
aF0.49
aF0.492
aF0.496
aF0.52
aF0.55
aF0.542
aF0.546
aF0.546
aF0.55
aF0.548
aF0.544
aF0.548
aF0.548
aF0.55
aF0.546
aF0.542
aF0.532
aF0.526
aF0.478
aF0.46
aF0.46
aF0.46
aF0.46
aF0.46
aF0.46
aF0.46
aF0.514
aF0.518
aF0.528
aF0.526
aF0.536
aF0.548
aF0.54
aF0.54
aF0.54
aF0.488
aF0.482
aF0.482
aF0.486
aF0.486
aF0.474
aF0.468
aF0.464
aF0.466
aF0.464
aF0.468
aF0.478
aF0.482
aF0.488
aF0.488
aF0.488
aF0.488
aF0.488
aF0.524
aF0.504
aF0.5
aF0.498
aF0.498
aF0.51
aF0.516
aF0.522
aF0.52
aF0.52
aF0.516
aF0.514
aF0.516
aF0.518
aF0.518
aF0.53
aF0.534
aF0.526
aF0.522
aF0.486
aF0.488
aF0.486
aF0.472
aF0.476
aF0.478
aF0.472
aF0.474
aF0.498
aF0.492
aF0.494
aF0.504
aF0.504
aF0.504
aF0.514
aF0.512
aF0.516
aF0.52
aF0.54
aF0.54
aF0.54
aF0.538
aF0.536
aF0.534
aF0.534
aF0.534
aF0.534
aF0.534
aF0.488
aF0.472
aF0.462
aF0.46
aF0.46
aF0.46
aF0.46
aF0.462
aF0.47
aF0.47
aF0.518
aF0.516
aF0.526
aF0.526
aF0.54
aF0.536
aF0.524
aF0.524
aF0.526
aF0.518
aF0.526
aF0.528
aF0.524
aF0.536
aF0.538
aF0.538
aF0.538
aF0.534
aF0.534
aF0.532
aF0.496
aF0.498
aF0.496
aF0.498
aF0.492
aF0.486
aF0.462
aF0.46
aF0.46
aF0.454
aF0.514
aF0.518
aF0.526
aF0.526
aF0.524
aF0.526
aF0.53
aF0.532
aF0.538
aF0.54
aF0.54
aF0.54
aF0.538
aF0.538
aF0.474
aF0.472
aF0.468
aF0.468
aF0.46
aF0.46
aF0.462
aF0.462
aF0.454
aF0.472
aF0.484
aF0.49
aF0.498
aF0.496
aF0.48
aF0.478
aF0.472
aF0.472
aF0.482
aF0.48
aF0.47
aF0.526
aF0.516
aF0.522
aF0.53
aF0.53
aF0.526
aF0.534
aF0.534
aF0.528
aF0.522
aF0.52
aF0.512
aF0.51
aF0.506
aF0.502
aF0.502
aF0.51
aF0.508
aF0.522
aF0.528
aF0.54
aF0.54
aF0.48
aF0.486
aF0.492
aF0.496
aF0.492
aF0.496
aF0.484
aF0.486
aF0.474
aF0.466
aF0.46
aF0.46
aF0.452
aF0.452
aF0.5
aF0.504
aF0.506
aF0.512
aF0.526
aF0.532
aF0.538
aF0.532
aF0.516
aF0.52
aF0.532
aF0.544
aF0.544
aF0.548
aF0.538
aF0.534
aF0.524
aF0.522
aF0.536
aF0.532
aF0.532
aF0.52
aF0.524
aF0.528
aF0.532
aF0.532
aF0.536
aF0.532
aF0.54
aF0.542
aF0.542
aF0.54
aF0.536
aF0.528
aF0.52
aF0.52
aF0.522
aF0.52
aF0.524
aF0.52
aF0.462
aF0.46
aF0.466
aF0.466
aF0.458
aF0.46
aF0.472
aF0.476
aF0.474
aF0.476
aF0.476
aF0.47
aF0.476
aF0.48
aF0.474
aF0.46
aF0.528
aF0.53
aF0.528
aF0.526
aF0.524
aF0.522
aF0.52
aF0.532
aF0.534
aF0.534
aF0.534
aF0.534
aF0.54
aF0.54
aF0.54
aF0.468
aF0.46
aF0.468
aF0.466
aF0.528
aF0.534
aF0.536
aF0.546
aF0.538
aF0.534
aF0.538
aF0.542
aF0.538
aF0.532
aF0.526
aF0.524
aF0.524
aF0.524
aF0.528
aF0.54
aF0.538
aF0.532
aF0.54
aF0.54
aF0.538
aF0.538
aF0.53
aF0.53
aF0.53
aF0.532
aF0.532
aF0.456
aF0.464
aF0.468
aF0.466
aF0.47
aF0.472
aF0.464
aF0.464
aF0.466
aF0.468
aF0.458
aF0.454
aF0.456
aF0.534
aF0.538
aF0.542
aF0.544
aF0.54
aF0.534
aF0.538
aF0.532
aF0.532
aF0.532
aF0.538
aF0.536
aF0.53
aF0.532
aF0.538
aF0.468
aF0.466
aF0.456
aF0.472
aF0.47
aF0.472
aF0.462
aF0.472
aF0.46
aF0.532
aF0.534
aF0.53
aF0.53
aF0.536
aF0.536
aF0.54
aF0.534
aF0.54
aF0.54
aF0.54
aF0.552
aF0.538
aF0.528
aF0.532
aF0.536
aF0.538
aF0.52
aF0.52
aF0.526
aF0.538
aF0.536
aF0.544
aF0.54
aF0.528
aF0.52
aF0.51
aF0.512
aF0.458
aF0.458
aF0.458
aF0.522
aF0.508
aF0.508
aF0.514
aF0.518
aF0.52
aF0.524
aF0.524
aF0.532
aF0.522
aF0.474
aF0.476
aF0.48
aF0.48
aF0.484
aF0.476
aF0.472
aF0.512
aF0.512
aF0.514
aF0.514
aF0.51
aF0.522
aF0.526
aF0.532
aF0.528
aF0.534
aF0.534
aF0.528
aF0.53
aF0.53
aF0.53
aF0.53
aF0.482
aF0.486
aF0.486
aF0.486
aF0.486
aF0.484
aF0.478
aF0.47
aF0.466
aF0.456
aF0.462
aF0.458
aF0.46
aF0.46
aF0.462
aF0.466
aF0.464
aF0.508
aF0.516
aF0.518
aF0.522
aF0.52
aF0.532
aF0.532
aF0.532
aF0.536
aF0.54
aF0.544
aF0.546
aF0.544
aF0.544
aF0.532
asg6
(g10
S'\x9a\x99\x99\x99\x99\x99\xc9?'
p17
tp18
Rp19
(lp20
F0.46
aF0.46
aF0.54
aF0.54
aF0.572
aF0.46
aF0.46
aF0.476
aF0.54
aF0.548
aF0.542
aF0.532
aF0.46
aF0.458
aF0.486
aF0.548
aF0.538
aF0.512
aF0.526
aF0.538
aF0.546
aF0.462
aF0.446
aF0.446
aF0.434
aF0.51
aF0.456
aF0.44
aF0.494
aF0.528
aF0.526
aF0.478
aF0.51
aF0.5
aF0.546
aF0.444
aF0.462
aF0.542
aF0.536
aF0.472
aF0.444
aF0.488
aF0.538
aF0.54
aF0.54
aF0.54
aF0.49
aF0.452
aF0.452
aF0.466
aF0.516
aF0.518
aF0.532
aF0.532
aF0.534
aF0.536
aF0.48
aF0.468
aF0.476
aF0.5
aF0.5
aF0.526
aF0.532
aF0.53
aF0.534
aF0.536
aF0.572
aF0.584
aF0.544
aF0.55
aF0.556
aF0.54
aF0.552
aF0.498
aF0.482
aF0.476
aF0.484
aF0.538
aF0.54
aF0.54
aF0.54
aF0.496
aF0.488
aF0.478
aF0.502
aF0.538
aF0.546
aF0.542
aF0.546
aF0.554
aF0.484
aF0.484
aF0.484
aF0.514
aF0.52
aF0.536
aF0.55
aF0.438
aF0.46
aF0.46
aF0.494
aF0.508
aF0.512
aF0.54
aF0.558
aF0.576
aF0.556
aF0.556
aF0.534
aF0.492
aF0.478
aF0.524
aF0.542
aF0.562
aF0.536
aF0.534
aF0.462
aF0.452
aF0.442
aF0.512
aF0.522
aF0.544
aF0.526
aF0.55
aF0.462
aF0.512
aF0.536
aF0.516
aF0.49
aF0.476
aF0.494
aF0.52
aF0.552
aF0.556
aF0.568
aF0.584
aF0.54
aF0.546
aF0.562
aF0.5
aF0.478
aF0.416
aF0.422
aF0.444
aF0.464
aF0.45
aF0.474
aF0.546
aF0.542
aF0.532
aF0.514
aF0.512
aF0.514
aF0.514
aF0.524
aF0.546
aF0.55
aF0.54
aF0.542
aF0.472
aF0.498
aF0.524
aF0.526
aF0.508
aF0.478
aF0.512
aF0.506
aF0.524
aF0.542
aF0.534
aF0.54
aF0.528
aF0.536
aF0.512
aF0.512
aF0.526
aF0.514
aF0.522
aF0.516
aF0.494
aF0.496
aF0.492
aF0.5
aF0.542
aF0.558
aF0.524
aF0.502
aF0.504
aF0.47
aF0.52
aF0.59
aF0.54
aF0.54
aF0.54
aF0.512
aF0.514
aF0.504
aF0.496
aF0.5
aF0.53
aF0.566
aF0.568
aF0.562
aF0.56
aF0.556
aF0.558
aF0.556
aF0.542
aF0.562
aF0.54
aF0.512
aF0.528
aF0.528
aF0.528
aF0.552
aF0.562
aF0.558
aF0.54
aF0.526
aF0.534
aF0.552
aF0.534
aF0.512
aF0.514
aF0.516
aF0.494
aF0.468
aF0.464
aF0.466
aF0.466
aF0.468
aF0.496
aF0.544
aF0.538
aF0.536
aF0.538
aF0.532
aF0.508
aF0.506
aF0.5
aF0.498
aF0.524
aF0.522
aF0.534
aF0.56
aF0.558
aF0.574
aF0.54
aF0.52
aF0.518
aF0.502
aF0.488
aF0.47
aF0.472
aF0.478
aF0.474
aF0.488
aF0.516
aF0.506
aF0.498
aF0.506
aF0.504
aF0.512
aF0.5
aF0.55
aF0.542
aF0.52
aF0.496
aF0.52
aF0.538
aF0.53
aF0.516
aF0.52
aF0.534
aF0.524
aF0.508
aF0.522
aF0.52
aF0.532
aF0.542
aF0.512
aF0.53
aF0.526
aF0.498
aF0.502
aF0.5
aF0.508
aF0.546
aF0.548
aF0.55
aF0.534
aF0.576
aF0.544
aF0.546
aF0.526
aF0.52
aF0.522
aF0.516
aF0.506
aF0.506
aF0.472
aF0.464
aF0.47
aF0.456
aF0.484
aF0.5
aF0.506
aF0.5
aF0.458
aF0.45
aF0.458
aF0.458
aF0.442
aF0.498
aF0.512
aF0.528
aF0.52
aF0.532
aF0.532
aF0.54
aF0.534
aF0.494
aF0.506
aF0.504
aF0.49
aF0.514
aF0.512
aF0.532
aF0.526
aF0.532
aF0.528
aF0.534
aF0.538
aF0.542
aF0.552
aF0.512
aF0.528
aF0.546
aF0.536
aF0.552
aF0.498
aF0.494
aF0.494
aF0.484
aF0.51
aF0.526
aF0.534
aF0.528
aF0.506
aF0.488
aF0.452
aF0.45
aF0.502
aF0.522
aF0.524
aF0.516
aF0.522
aF0.514
aF0.506
aF0.518
aF0.526
aF0.522
aF0.522
aF0.5
aF0.498
aF0.506
aF0.518
aF0.514
aF0.534
aF0.532
aF0.544
aF0.552
aF0.56
aF0.554
aF0.484
aF0.48
aF0.494
aF0.492
aF0.512
aF0.528
aF0.538
aF0.534
aF0.526
aF0.526
aF0.54
aF0.524
aF0.538
aF0.536
aF0.516
aF0.492
aF0.484
aF0.486
aF0.48
aF0.478
aF0.494
aF0.532
aF0.54
aF0.54
aF0.536
aF0.528
aF0.51
aF0.488
aF0.48
aF0.494
aF0.498
aF0.496
aF0.49
aF0.514
aF0.53
aF0.534
aF0.514
aF0.456
aF0.438
aF0.45
aF0.486
aF0.518
aF0.528
aF0.536
aF0.528
aF0.506
aF0.486
aF0.506
aF0.468
aF0.466
aF0.482
aF0.542
aF0.53
aF0.536
aF0.536
aF0.534
aF0.518
aF0.508
aF0.508
aF0.518
aF0.516
aF0.51
aF0.528
aF0.506
aF0.48
aF0.484
aF0.488
aF0.474
aF0.472
aF0.472
aF0.508
aF0.516
aF0.514
aF0.524
aF0.514
aF0.506
aF0.482
aF0.466
aF0.482
aF0.484
aF0.47
aF0.492
aF0.506
aF0.502
aF0.522
aF0.524
aF0.522
aF0.518
aF0.498
aF0.512
aF0.49
aF0.476
aF0.46
aF0.462
aF0.458
aF0.508
aF0.52
aF0.54
aF0.54
aF0.504
aF0.468
aF0.46
aF0.46
aF0.458
aF0.458
aF0.52
aF0.546
aF0.54
aF0.54
aF0.54
aF0.532
aF0.512
aF0.518
aF0.516
aF0.52
aF0.508
aF0.51
aF0.51
aF0.512
aF0.504
aF0.51
aF0.538
aF0.534
aF0.488
aF0.502
aF0.496
aF0.494
aF0.492
aF0.498
aF0.49
aF0.484
aF0.5
aF0.502
aF0.5
aF0.508
aF0.496
aF0.48
aF0.486
aF0.498
aF0.492
aF0.486
aF0.494
aF0.492
aF0.5
aF0.5
aF0.502
aF0.482
aF0.484
aF0.48
aF0.47
aF0.482
aF0.524
aF0.53
aF0.542
aF0.542
aF0.542
aF0.54
aF0.546
aF0.54
aF0.554
aF0.528
aF0.524
aF0.508
aF0.536
aF0.544
aF0.506
aF0.508
aF0.492
aF0.46
aF0.452
aF0.438
aF0.444
aF0.492
aF0.53
aF0.538
aF0.542
aF0.546
aF0.54
aF0.544
aF0.54
aF0.528
aF0.514
aF0.494
aF0.456
aF0.462
aF0.462
aF0.454
aF0.448
aF0.45
aF0.45
aF0.45
aF0.44
aF0.51
aF0.518
aF0.526
aF0.538
aF0.538
aF0.55
aF0.55
aF0.548
aF0.544
aF0.558
aF0.546
aF0.55
aF0.552
aF0.472
aF0.476
aF0.468
aF0.47
aF0.46
aF0.464
aF0.468
aF0.474
aF0.482
aF0.472
aF0.472
aF0.514
aF0.54
aF0.54
aF0.54
aF0.534
aF0.54
aF0.542
aF0.542
aF0.524
aF0.528
aF0.516
aF0.536
aF0.538
aF0.524
aF0.53
aF0.538
aF0.532
aF0.526
aF0.524
aF0.532
aF0.532
aF0.536
aF0.54
aF0.54
aF0.54
aF0.538
aF0.532
aF0.534
aF0.546
aF0.494
aF0.476
aF0.472
aF0.474
aF0.47
aF0.494
aF0.498
aF0.498
aF0.502
aF0.516
aF0.526
aF0.532
aF0.514
aF0.53
aF0.502
aF0.502
aF0.492
aF0.492
aF0.496
aF0.504
aF0.52
aF0.49
aF0.47
aF0.478
aF0.492
aF0.512
aF0.516
aF0.514
aF0.516
aF0.486
aF0.478
aF0.486
aF0.476
aF0.484
aF0.486
aF0.54
aF0.54
aF0.538
aF0.534
aF0.526
aF0.538
aF0.496
aF0.542
aF0.54
aF0.534
aF0.532
aF0.532
aF0.532
aF0.544
aF0.544
aF0.532
aF0.518
aF0.508
aF0.514
aF0.518
aF0.522
aF0.516
aF0.518
aF0.538
aF0.54
aF0.54
aF0.54
aF0.468
aF0.462
aF0.47
aF0.484
aF0.482
aF0.486
aF0.498
aF0.506
aF0.506
aF0.488
aF0.464
aF0.464
aF0.484
aF0.484
aF0.482
aF0.49
aF0.478
aF0.474
aF0.48
aF0.482
aF0.536
aF0.526
aF0.504
aF0.482
aF0.47
aF0.524
aF0.544
aF0.54
aF0.542
aF0.538
aF0.54
aF0.54
aF0.538
aF0.52
aF0.514
aF0.52
aF0.514
aF0.502
aF0.498
aF0.51
aF0.53
aF0.498
aF0.482
aF0.472
aF0.478
aF0.482
aF0.512
aF0.542
aF0.532
aF0.54
aF0.54
aF0.54
aF0.534
aF0.524
aF0.534
aF0.534
aF0.516
aF0.522
aF0.502
aF0.512
aF0.52
aF0.522
aF0.52
aF0.524
aF0.518
aF0.518
aF0.496
aF0.492
aF0.494
aF0.502
aF0.496
aF0.49
aF0.48
aF0.46
aF0.46
aF0.46
aF0.46
aF0.488
aF0.502
aF0.512
aF0.52
aF0.522
aF0.536
aF0.54
aF0.538
aF0.538
aF0.546
aF0.548
aF0.55
aF0.52
aF0.514
aF0.484
aF0.474
aF0.466
aF0.47
aF0.47
aF0.476
aF0.472
aF0.464
aF0.466
aF0.464
aF0.472
aF0.492
aF0.482
aF0.468
aF0.47
aF0.482
aF0.494
aF0.5
aF0.506
aF0.498
aF0.488
aF0.47
aF0.49
aF0.514
aF0.526
aF0.538
aF0.534
aF0.538
aF0.506
aF0.5
aF0.506
aF0.502
aF0.53
aF0.528
aF0.518
aF0.488
aF0.49
aF0.514
aF0.494
aF0.482
aF0.51
aF0.47
aF0.466
aF0.47
aF0.474
aF0.462
aF0.462
aF0.5
aF0.484
aF0.48
aF0.484
aF0.496
aF0.506
aF0.5
aF0.506
aF0.518
aF0.49
aF0.498
aF0.53
aF0.54
aF0.54
aF0.54
aF0.5
aF0.498
aF0.506
aF0.532
aF0.54
aF0.54
aF0.54
aF0.526
aF0.518
aF0.52
aF0.51
aF0.478
aF0.474
aF0.516
aF0.528
aF0.512
aF0.514
aF0.54
aF0.536
aF0.54
aF0.51
aF0.496
aF0.49
aF0.484
aF0.47
aF0.45
aF0.534
aF0.528
aF0.526
aF0.528
aF0.53
aF0.524
aF0.532
aF0.538
aF0.514
aF0.5
aF0.494
aF0.48
aF0.488
aF0.484
aF0.488
aF0.476
aF0.474
aF0.478
aF0.484
aF0.498
aF0.492
aF0.478
aF0.476
aF0.47
aF0.472
aF0.478
aF0.48
aF0.54
aF0.53
aF0.482
aF0.518
aF0.54
aF0.536
aF0.544
aF0.532
aF0.532
aF0.526
aF0.524
aF0.486
aF0.496
aF0.518
aF0.522
aF0.514
aF0.528
aF0.534
aF0.52
aF0.496
aF0.512
aF0.516
aF0.514
aF0.508
aF0.53
aF0.504
aF0.46
aF0.458
aF0.474
aF0.492
aF0.496
aF0.502
aF0.492
aF0.492
aF0.498
aF0.502
aF0.498
aF0.492
aF0.502
aF0.496
aF0.498
aF0.504
aF0.496
aF0.504
aF0.498
aF0.49
aF0.494
aF0.49
aF0.512
aF0.518
aF0.52
aF0.514
aF0.54
aF0.54
aF0.54
aF0.538
aF0.534
aF0.526
aF0.496
aF0.492
aF0.472
aF0.468
aF0.476
aF0.478
aF0.49
aF0.51
aF0.514
aF0.51
aF0.504
aF0.512
aF0.516
aF0.512
aF0.52
aF0.528
aF0.522
aF0.51
aF0.482
aF0.486
aF0.484
aF0.476
aF0.488
aF0.488
aF0.492
aF0.492
aF0.502
aF0.522
aF0.502
aF0.494
aF0.502
aF0.546
aF0.538
aF0.536
aF0.532
aF0.534
aF0.534
aF0.542
aF0.536
aF0.538
aF0.546
aF0.534
aF0.526
aF0.516
aF0.52
aF0.518
aF0.514
aF0.516
aF0.528
aF0.536
aF0.536
aF0.536
aF0.54
aF0.54
aF0.542
asg6
(g10
S'\x9a\x99\x99\x99\x99\x99\xd9?'
p21
tp22
Rp23
(lp24
F0.46
aF0.542
aF0.54
aF0.54
aF0.54
aF0.516
aF0.462
aF0.46
aF0.46
aF0.46
aF0.46
aF0.516
aF0.528
aF0.54
aF0.538
aF0.54
aF0.53
aF0.536
aF0.532
aF0.518
aF0.52
aF0.508
aF0.516
aF0.508
aF0.528
aF0.48
aF0.44
aF0.434
aF0.478
aF0.512
aF0.538
aF0.54
aF0.54
aF0.542
aF0.49
aF0.482
aF0.492
aF0.516
aF0.592
aF0.582
aF0.582
aF0.55
aF0.536
aF0.502
aF0.494
aF0.506
aF0.536
aF0.536
aF0.54
aF0.522
aF0.5
aF0.506
aF0.564
aF0.54
aF0.538
aF0.52
aF0.532
aF0.532
aF0.532
aF0.564
aF0.562
aF0.552
aF0.55
aF0.556
aF0.576
aF0.554
aF0.528
aF0.54
aF0.54
aF0.54
aF0.548
aF0.512
aF0.452
aF0.456
aF0.454
aF0.456
aF0.482
aF0.552
aF0.548
aF0.508
aF0.508
aF0.518
aF0.484
aF0.468
aF0.462
aF0.49
aF0.54
aF0.544
aF0.538
aF0.47
aF0.46
aF0.472
aF0.464
aF0.508
aF0.508
aF0.5
aF0.478
aF0.484
aF0.512
aF0.518
aF0.544
aF0.538
aF0.548
aF0.552
aF0.558
aF0.554
aF0.556
aF0.568
aF0.476
aF0.524
aF0.526
aF0.5
aF0.526
aF0.544
aF0.546
aF0.492
aF0.502
aF0.484
aF0.502
aF0.512
aF0.512
aF0.538
aF0.538
aF0.53
aF0.494
aF0.518
aF0.528
aF0.526
aF0.496
aF0.492
aF0.49
aF0.496
aF0.466
aF0.492
aF0.482
aF0.476
aF0.48
aF0.498
aF0.52
aF0.528
aF0.522
aF0.522
aF0.528
aF0.542
aF0.51
aF0.484
aF0.514
aF0.494
aF0.45
aF0.46
aF0.49
aF0.504
aF0.518
aF0.53
aF0.544
aF0.54
aF0.558
aF0.548
aF0.542
aF0.554
aF0.552
aF0.486
aF0.498
aF0.478
aF0.47
aF0.478
aF0.524
aF0.502
aF0.484
aF0.498
aF0.504
aF0.532
aF0.534
aF0.534
aF0.526
aF0.522
aF0.528
aF0.482
aF0.494
aF0.492
aF0.482
aF0.508
aF0.534
aF0.526
aF0.524
aF0.518
aF0.5
aF0.494
aF0.504
aF0.506
aF0.496
aF0.504
aF0.494
aF0.538
aF0.53
aF0.52
aF0.526
aF0.526
aF0.522
aF0.486
aF0.496
aF0.484
aF0.48
aF0.474
aF0.468
aF0.506
aF0.552
aF0.556
aF0.558
aF0.52
aF0.502
aF0.508
aF0.514
aF0.52
aF0.532
aF0.54
aF0.51
aF0.502
aF0.47
aF0.484
aF0.466
aF0.456
aF0.498
aF0.54
aF0.536
aF0.528
aF0.524
aF0.526
aF0.496
aF0.522
aF0.476
aF0.474
aF0.47
aF0.47
aF0.468
aF0.476
aF0.504
aF0.53
aF0.524
aF0.52
aF0.522
aF0.52
aF0.528
aF0.532
aF0.524
aF0.458
aF0.462
aF0.458
aF0.466
aF0.456
aF0.526
aF0.532
aF0.54
aF0.546
aF0.534
aF0.53
aF0.532
aF0.536
aF0.538
aF0.536
aF0.542
aF0.546
aF0.536
aF0.5
aF0.506
aF0.504
aF0.5
aF0.496
aF0.5
aF0.498
aF0.504
aF0.528
aF0.512
aF0.526
aF0.52
aF0.528
aF0.532
aF0.528
aF0.492
aF0.498
aF0.494
aF0.492
aF0.492
aF0.442
aF0.46
aF0.464
aF0.466
aF0.484
aF0.504
aF0.502
aF0.518
aF0.524
aF0.516
aF0.5
aF0.496
aF0.498
aF0.498
aF0.49
aF0.484
aF0.484
aF0.494
aF0.536
aF0.522
aF0.536
aF0.494
aF0.504
aF0.508
aF0.514
aF0.52
aF0.522
aF0.524
aF0.516
aF0.488
aF0.498
aF0.49
aF0.5
aF0.498
aF0.506
aF0.52
aF0.53
aF0.52
aF0.526
aF0.522
aF0.526
aF0.524
aF0.536
aF0.528
aF0.518
aF0.518
aF0.512
aF0.538
aF0.544
aF0.554
aF0.542
aF0.546
aF0.544
aF0.5
aF0.458
aF0.506
aF0.536
aF0.54
aF0.486
aF0.444
aF0.438
aF0.454
aF0.45
aF0.448
aF0.442
aF0.474
aF0.48
aF0.498
aF0.538
aF0.54
aF0.546
aF0.546
aF0.548
aF0.546
aF0.56
aF0.54
aF0.534
aF0.492
aF0.488
aF0.482
aF0.476
aF0.484
aF0.498
aF0.494
aF0.494
aF0.506
aF0.504
aF0.502
aF0.494
aF0.482
aF0.482
aF0.494
aF0.478
aF0.474
aF0.47
aF0.472
aF0.48
aF0.522
aF0.534
aF0.526
aF0.528
aF0.538
aF0.54
aF0.54
aF0.54
aF0.524
aF0.522
aF0.486
aF0.46
aF0.46
aF0.492
aF0.504
aF0.514
aF0.514
aF0.518
aF0.528
aF0.526
aF0.522
aF0.528
aF0.534
aF0.536
aF0.538
aF0.528
aF0.51
aF0.514
aF0.508
aF0.514
aF0.47
aF0.472
aF0.478
aF0.532
aF0.53
aF0.54
aF0.53
aF0.524
aF0.53
aF0.532
aF0.526
aF0.526
aF0.518
aF0.472
aF0.51
aF0.524
aF0.528
aF0.528
aF0.516
aF0.526
aF0.528
aF0.528
aF0.528
aF0.528
aF0.52
aF0.496
aF0.498
aF0.494
aF0.496
aF0.514
aF0.538
aF0.536
aF0.538
aF0.528
aF0.522
aF0.518
aF0.468
aF0.462
aF0.472
aF0.474
aF0.478
aF0.484
aF0.478
aF0.482
aF0.466
aF0.474
aF0.47
aF0.516
aF0.53
aF0.536
aF0.54
aF0.54
aF0.536
aF0.528
aF0.522
aF0.538
aF0.54
aF0.54
aF0.53
aF0.53
aF0.522
aF0.518
aF0.518
aF0.518
aF0.518
aF0.532
aF0.526
aF0.522
aF0.518
aF0.522
aF0.518
aF0.516
aF0.534
aF0.498
aF0.504
aF0.508
aF0.51
aF0.486
aF0.488
aF0.492
aF0.488
aF0.468
aF0.462
aF0.46
aF0.462
aF0.464
aF0.472
aF0.48
aF0.538
aF0.54
aF0.54
aF0.538
aF0.538
aF0.534
aF0.534
aF0.532
aF0.532
aF0.532
aF0.526
aF0.53
aF0.538
aF0.544
aF0.544
aF0.534
aF0.524
aF0.482
aF0.476
aF0.476
aF0.482
aF0.478
aF0.472
aF0.462
aF0.474
aF0.466
aF0.46
aF0.466
aF0.464
aF0.468
aF0.47
aF0.532
aF0.524
aF0.528
aF0.522
aF0.54
aF0.542
aF0.538
aF0.54
aF0.54
aF0.548
aF0.548
aF0.536
aF0.538
aF0.536
aF0.528
aF0.524
aF0.53
aF0.54
aF0.528
aF0.534
aF0.516
aF0.514
aF0.512
aF0.51
aF0.516
aF0.522
aF0.528
aF0.536
aF0.536
aF0.536
aF0.542
aF0.542
aF0.544
aF0.532
aF0.53
aF0.534
aF0.53
aF0.534
aF0.536
aF0.532
aF0.53
aF0.532
aF0.466
aF0.464
aF0.46
aF0.454
aF0.454
aF0.452
aF0.456
aF0.456
aF0.45
aF0.456
aF0.452
aF0.452
aF0.452
aF0.454
aF0.458
aF0.462
aF0.464
aF0.524
aF0.524
aF0.53
aF0.516
aF0.524
aF0.526
aF0.536
aF0.536
aF0.53
aF0.53
aF0.524
aF0.526
aF0.508
aF0.512
aF0.508
aF0.504
aF0.502
aF0.516
aF0.514
aF0.518
aF0.522
aF0.522
aF0.516
aF0.522
aF0.524
aF0.52
aF0.52
aF0.516
aF0.514
aF0.52
aF0.502
aF0.458
aF0.46
aF0.46
aF0.46
aF0.468
aF0.476
aF0.492
aF0.494
aF0.494
aF0.494
aF0.488
aF0.53
aF0.522
aF0.524
aF0.526
aF0.526
aF0.52
aF0.514
aF0.514
aF0.518
aF0.514
aF0.512
aF0.512
aF0.512
aF0.534
aF0.534
aF0.538
aF0.534
aF0.532
aF0.53
aF0.532
aF0.542
aF0.542
aF0.548
aF0.558
aF0.544
aF0.548
aF0.552
aF0.552
aF0.55
aF0.55
aF0.548
aF0.528
aF0.528
aF0.528
aF0.524
aF0.528
aF0.53
aF0.528
aF0.522
aF0.534
aF0.536
aF0.47
aF0.47
aF0.464
aF0.462
aF0.468
aF0.468
aF0.468
aF0.466
aF0.48
aF0.48
aF0.478
aF0.47
aF0.482
aF0.488
aF0.482
aF0.478
aF0.478
aF0.462
aF0.436
aF0.436
aF0.442
aF0.444
aF0.51
aF0.516
aF0.528
aF0.532
aF0.536
aF0.538
aF0.542
aF0.544
aF0.544
aF0.542
aF0.54
aF0.546
aF0.534
aF0.518
aF0.526
aF0.524
aF0.52
aF0.522
aF0.518
aF0.52
aF0.522
aF0.522
aF0.518
aF0.522
aF0.532
aF0.538
aF0.54
aF0.54
aF0.538
aF0.538
aF0.532
aF0.522
aF0.466
aF0.466
aF0.46
aF0.458
aF0.456
aF0.47
aF0.468
aF0.466
aF0.47
aF0.474
aF0.528
aF0.538
aF0.538
aF0.536
aF0.534
aF0.536
aF0.518
aF0.52
aF0.514
aF0.51
aF0.508
aF0.508
aF0.508
aF0.518
aF0.516
aF0.54
aF0.54
aF0.538
aF0.538
aF0.534
aF0.472
aF0.46
aF0.46
aF0.46
aF0.458
aF0.474
aF0.488
aF0.48
aF0.48
aF0.542
aF0.544
aF0.544
aF0.542
aF0.522
aF0.522
aF0.52
aF0.456
aF0.456
aF0.456
aF0.458
aF0.46
aF0.466
aF0.484
aF0.484
aF0.48
aF0.476
aF0.478
aF0.486
aF0.492
aF0.496
aF0.56
aF0.56
aF0.542
aF0.54
aF0.542
aF0.54
aF0.544
aF0.544
aF0.544
aF0.54
aF0.54
aF0.54
aF0.54
aF0.542
aF0.536
aF0.534
aF0.54
aF0.466
aF0.472
aF0.47
aF0.47
aF0.472
aF0.468
aF0.458
aF0.456
aF0.452
aF0.45
aF0.448
aF0.534
aF0.536
aF0.532
aF0.532
aF0.528
aF0.53
aF0.534
aF0.452
aF0.456
aF0.462
aF0.466
aF0.474
aF0.474
aF0.472
aF0.476
aF0.476
aF0.472
aF0.468
aF0.46
aF0.46
aF0.46
aF0.46
aF0.458
aF0.458
aF0.53
aF0.526
aF0.524
aF0.52
aF0.518
aF0.518
aF0.516
aF0.524
aF0.528
aF0.528
aF0.542
aF0.54
aF0.546
aF0.546
aF0.546
aF0.544
aF0.54
aF0.524
aF0.53
aF0.53
aF0.448
aF0.446
aF0.446
aF0.442
aF0.436
aF0.452
aF0.536
aF0.534
aF0.54
aF0.54
aF0.544
aF0.542
aF0.542
aF0.548
aF0.55
aF0.55
aF0.554
aF0.542
aF0.544
aF0.546
aF0.548
aF0.544
aF0.54
aF0.544
aF0.546
aF0.536
aF0.538
aF0.538
aF0.538
aF0.474
aF0.474
aF0.474
aF0.476
aF0.454
aF0.454
aF0.454
aF0.452
aF0.454
aF0.452
aF0.532
aF0.534
aF0.528
aF0.524
aF0.532
aF0.54
aF0.54
aF0.534
aF0.536
aF0.544
aF0.546
aF0.544
aF0.54
aF0.54
aF0.538
aF0.542
aF0.54
aF0.538
aF0.544
aF0.55
aF0.472
aF0.47
aF0.468
aF0.45
aF0.476
aF0.478
aF0.482
aF0.476
aF0.476
aF0.54
aF0.538
aF0.536
aF0.532
aF0.522
aF0.502
aF0.506
aF0.508
aF0.532
aF0.536
aF0.54
aF0.54
aF0.54
aF0.54
aF0.556
aF0.544
aF0.55
aF0.536
aF0.458
aF0.458
aF0.458
aF0.456
aF0.46
aF0.448
aF0.46
aF0.468
aF0.46
aF0.444
aF0.444
aF0.434
aF0.434
aF0.454
aF0.428
aF0.436
aF0.45
aF0.474
aF0.474
aF0.462
aF0.464
aF0.46
aF0.474
aF0.476
aF0.472
aF0.482
aF0.484
aF0.484
aF0.482
aF0.482
aF0.464
aF0.462
aF0.472
aF0.47
aF0.456
aF0.458
aF0.454
aF0.454
aF0.452
aF0.514
aF0.508
aF0.52
aF0.508
aF0.522
aF0.534
aF0.538
aF0.538
aF0.538
aF0.536
aF0.54
aF0.54
aF0.49
aF0.492
aF0.496
aF0.492
aF0.49
aF0.47
asg6
(g10
S'333333\xd3?'
p25
tp26
Rp27
(lp28
F0.54
aF0.54
aF0.534
aF0.46
aF0.484
aF0.54
aF0.546
aF0.504
aF0.454
aF0.46
aF0.47
aF0.532
aF0.54
aF0.54
aF0.54
aF0.548
aF0.47
aF0.47
aF0.48
aF0.526
aF0.546
aF0.548
aF0.486
aF0.472
aF0.448
aF0.48
aF0.478
aF0.47
aF0.534
aF0.538
aF0.532
aF0.488
aF0.534
aF0.562
aF0.526
aF0.536
aF0.49
aF0.496
aF0.498
aF0.502
aF0.564
aF0.572
aF0.55
aF0.538
aF0.526
aF0.51
aF0.502
aF0.518
aF0.542
aF0.592
aF0.562
aF0.538
aF0.494
aF0.48
aF0.484
aF0.562
aF0.554
aF0.544
aF0.452
aF0.49
aF0.5
aF0.538
aF0.55
aF0.522
aF0.568
aF0.576
aF0.588
aF0.566
aF0.556
aF0.562
aF0.56
aF0.54
aF0.54
aF0.518
aF0.524
aF0.546
aF0.566
aF0.568
aF0.576
aF0.55
aF0.532
aF0.488
aF0.474
aF0.464
aF0.478
aF0.504
aF0.488
aF0.484
aF0.474
aF0.504
aF0.476
aF0.482
aF0.502
aF0.512
aF0.532
aF0.5
aF0.524
aF0.498
aF0.478
aF0.47
aF0.508
aF0.542
aF0.536
aF0.52
aF0.496
aF0.492
aF0.526
aF0.53
aF0.486
aF0.5
aF0.518
aF0.548
aF0.558
aF0.526
aF0.484
aF0.492
aF0.488
aF0.52
aF0.496
aF0.514
aF0.52
aF0.53
aF0.53
aF0.55
aF0.558
aF0.564
aF0.532
aF0.536
aF0.484
aF0.566
aF0.528
aF0.528
aF0.546
aF0.478
aF0.508
aF0.554
aF0.526
aF0.536
aF0.482
aF0.432
aF0.474
aF0.508
aF0.542
aF0.524
aF0.508
aF0.474
aF0.468
aF0.478
aF0.49
aF0.476
aF0.504
aF0.496
aF0.486
aF0.5
aF0.502
aF0.496
aF0.522
aF0.512
aF0.464
aF0.448
aF0.452
aF0.46
aF0.46
aF0.474
aF0.54
aF0.548
aF0.53
aF0.502
aF0.518
aF0.524
aF0.536
aF0.542
aF0.538
aF0.53
aF0.54
aF0.536
aF0.542
aF0.558
aF0.558
aF0.55
aF0.552
aF0.56
aF0.57
aF0.582
aF0.558
aF0.512
aF0.494
aF0.514
aF0.478
aF0.468
aF0.518
aF0.53
aF0.488
aF0.468
aF0.46
aF0.464
aF0.49
aF0.484
aF0.488
aF0.478
aF0.502
aF0.502
aF0.498
aF0.486
aF0.466
aF0.436
aF0.42
aF0.54
aF0.54
aF0.54
aF0.542
aF0.484
aF0.484
aF0.494
aF0.526
aF0.538
aF0.54
aF0.518
aF0.506
aF0.478
aF0.49
aF0.502
aF0.494
aF0.512
aF0.54
aF0.54
aF0.54
aF0.536
aF0.514
aF0.518
aF0.5
aF0.51
aF0.524
aF0.53
aF0.512
aF0.528
aF0.552
aF0.536
aF0.536
aF0.536
aF0.518
aF0.518
aF0.51
aF0.51
aF0.546
aF0.534
aF0.542
aF0.554
aF0.548
aF0.526
aF0.52
aF0.494
aF0.49
aF0.474
aF0.488
aF0.496
aF0.5
aF0.504
aF0.458
aF0.448
aF0.452
aF0.452
aF0.462
aF0.49
aF0.502
aF0.512
aF0.51
aF0.51
aF0.516
aF0.494
aF0.506
aF0.498
aF0.512
aF0.49
aF0.486
aF0.498
aF0.482
aF0.482
aF0.468
aF0.476
aF0.476
aF0.472
aF0.456
aF0.46
aF0.508
aF0.544
aF0.552
aF0.55
aF0.542
aF0.544
aF0.538
aF0.524
aF0.53
aF0.534
aF0.544
aF0.54
aF0.544
aF0.508
aF0.506
aF0.504
aF0.508
aF0.512
aF0.516
aF0.512
aF0.512
aF0.518
aF0.522
aF0.526
aF0.518
aF0.506
aF0.496
aF0.496
aF0.516
aF0.524
aF0.532
aF0.54
aF0.544
aF0.55
aF0.546
aF0.484
aF0.464
aF0.46
aF0.46
aF0.46
aF0.454
aF0.464
aF0.482
aF0.494
aF0.544
aF0.538
aF0.536
aF0.532
aF0.52
aF0.482
aF0.478
aF0.484
aF0.482
aF0.522
aF0.534
aF0.526
aF0.522
aF0.522
aF0.546
aF0.536
aF0.536
aF0.548
aF0.554
aF0.54
aF0.516
aF0.49
aF0.482
aF0.468
aF0.446
aF0.434
aF0.436
aF0.456
aF0.478
aF0.51
aF0.512
aF0.518
aF0.508
aF0.504
aF0.502
aF0.508
aF0.482
aF0.482
aF0.48
aF0.484
aF0.482
aF0.478
aF0.482
aF0.48
aF0.488
aF0.5
aF0.528
aF0.522
aF0.532
aF0.528
aF0.514
aF0.484
aF0.49
aF0.498
aF0.482
aF0.494
aF0.492
aF0.504
aF0.518
aF0.516
aF0.54
aF0.508
aF0.498
aF0.492
aF0.482
aF0.472
aF0.5
aF0.502
aF0.498
aF0.5
aF0.5
aF0.5
aF0.494
aF0.488
aF0.47
aF0.478
aF0.498
aF0.51
aF0.51
aF0.512
aF0.542
aF0.542
aF0.522
aF0.524
aF0.544
aF0.544
aF0.538
aF0.542
aF0.534
aF0.534
aF0.506
aF0.498
aF0.496
aF0.496
aF0.51
aF0.508
aF0.506
aF0.512
aF0.522
aF0.53
aF0.53
aF0.538
aF0.518
aF0.508
aF0.486
aF0.486
aF0.504
aF0.542
aF0.54
aF0.546
aF0.51
aF0.5
aF0.498
aF0.494
aF0.488
aF0.48
aF0.472
aF0.468
aF0.472
aF0.468
aF0.45
aF0.466
aF0.472
aF0.47
aF0.48
aF0.484
aF0.478
aF0.476
aF0.466
aF0.462
aF0.502
aF0.512
aF0.516
aF0.518
aF0.538
aF0.528
aF0.538
aF0.544
aF0.534
aF0.532
aF0.538
aF0.542
aF0.534
aF0.538
aF0.538
aF0.53
aF0.518
aF0.488
aF0.494
aF0.498
aF0.486
aF0.484
aF0.488
aF0.5
aF0.518
aF0.524
aF0.526
aF0.534
aF0.534
aF0.534
aF0.534
aF0.54
aF0.498
aF0.502
aF0.496
aF0.48
aF0.466
aF0.468
aF0.48
aF0.484
aF0.486
aF0.48
aF0.518
aF0.51
aF0.508
aF0.516
aF0.52
aF0.522
aF0.546
aF0.532
aF0.534
aF0.542
aF0.552
aF0.538
aF0.542
aF0.552
aF0.544
aF0.536
aF0.54
aF0.542
aF0.532
aF0.514
aF0.524
aF0.522
aF0.526
aF0.538
aF0.524
aF0.528
aF0.536
aF0.538
aF0.544
aF0.54
aF0.536
aF0.538
aF0.528
aF0.506
aF0.492
aF0.464
aF0.464
aF0.502
aF0.504
aF0.524
aF0.532
aF0.526
aF0.524
aF0.524
aF0.536
aF0.544
aF0.542
aF0.54
aF0.534
aF0.54
aF0.538
aF0.54
aF0.542
aF0.544
aF0.538
aF0.522
aF0.53
aF0.528
aF0.532
aF0.528
aF0.522
aF0.51
aF0.514
aF0.472
aF0.466
aF0.46
aF0.47
aF0.47
aF0.484
aF0.488
aF0.494
aF0.492
aF0.49
aF0.492
aF0.494
aF0.486
aF0.488
aF0.476
aF0.47
aF0.47
aF0.472
aF0.468
aF0.48
aF0.532
aF0.536
aF0.534
aF0.536
aF0.522
aF0.516
aF0.522
aF0.52
aF0.518
aF0.514
aF0.514
aF0.524
aF0.532
aF0.534
aF0.544
aF0.544
aF0.546
aF0.538
aF0.538
aF0.544
aF0.528
aF0.526
aF0.526
aF0.522
aF0.518
aF0.51
aF0.514
aF0.524
aF0.528
aF0.498
aF0.486
aF0.492
aF0.52
aF0.54
aF0.492
aF0.5
aF0.54
aF0.542
aF0.542
aF0.546
aF0.546
aF0.544
aF0.544
aF0.532
aF0.536
aF0.54
aF0.532
aF0.53
aF0.526
aF0.54
aF0.492
aF0.488
aF0.488
aF0.472
aF0.478
aF0.458
aF0.45
aF0.442
aF0.448
aF0.454
aF0.452
aF0.452
aF0.5
aF0.494
aF0.496
aF0.502
aF0.496
aF0.486
aF0.496
aF0.504
aF0.51
aF0.542
aF0.538
aF0.536
aF0.532
aF0.532
aF0.532
aF0.524
aF0.522
aF0.536
aF0.532
aF0.534
aF0.522
aF0.532
aF0.536
aF0.524
aF0.538
aF0.542
aF0.536
aF0.536
aF0.542
aF0.542
aF0.546
aF0.556
aF0.56
aF0.54
aF0.548
aF0.542
aF0.53
aF0.534
aF0.534
aF0.526
aF0.528
aF0.532
aF0.534
aF0.538
aF0.536
aF0.538
aF0.552
aF0.55
aF0.55
aF0.54
aF0.542
aF0.542
aF0.552
aF0.54
aF0.532
aF0.524
aF0.52
aF0.448
aF0.45
aF0.452
aF0.442
aF0.452
aF0.514
aF0.51
aF0.522
aF0.532
aF0.55
aF0.544
aF0.544
aF0.542
aF0.548
aF0.552
aF0.542
aF0.536
aF0.526
aF0.522
aF0.516
aF0.524
aF0.536
aF0.544
aF0.534
aF0.53
aF0.528
aF0.534
aF0.534
aF0.53
aF0.538
aF0.526
aF0.52
aF0.512
aF0.514
aF0.506
aF0.506
aF0.508
aF0.51
aF0.536
aF0.536
aF0.536
aF0.548
aF0.496
aF0.498
aF0.496
aF0.5
aF0.496
aF0.498
aF0.496
aF0.458
aF0.466
aF0.46
aF0.462
aF0.458
aF0.452
aF0.462
aF0.512
aF0.512
aF0.538
aF0.54
aF0.54
aF0.544
aF0.538
aF0.538
aF0.536
aF0.532
aF0.506
aF0.508
aF0.522
aF0.526
aF0.514
aF0.514
aF0.516
aF0.514
aF0.536
aF0.542
aF0.496
aF0.496
aF0.484
aF0.486
aF0.484
aF0.474
aF0.47
aF0.472
aF0.474
aF0.474
aF0.474
aF0.474
aF0.474
aF0.532
aF0.532
aF0.532
aF0.532
aF0.532
aF0.538
aF0.48
aF0.482
aF0.484
aF0.476
aF0.476
aF0.484
aF0.53
aF0.53
aF0.532
aF0.53
aF0.538
aF0.538
aF0.54
aF0.54
aF0.542
aF0.534
aF0.516
aF0.5
aF0.508
aF0.514
aF0.512
aF0.508
aF0.5
aF0.52
aF0.524
aF0.52
aF0.53
aF0.534
aF0.548
aF0.524
aF0.524
aF0.528
aF0.526
aF0.53
aF0.556
aF0.552
aF0.554
aF0.548
aF0.54
aF0.534
aF0.536
aF0.538
aF0.486
aF0.466
aF0.464
aF0.464
aF0.452
aF0.464
aF0.462
aF0.462
aF0.466
aF0.45
aF0.458
aF0.458
aF0.456
aF0.46
aF0.46
aF0.472
aF0.476
aF0.474
aF0.56
aF0.552
aF0.55
aF0.54
aF0.544
aF0.546
aF0.548
aF0.55
aF0.54
aF0.532
aF0.53
aF0.53
aF0.528
aF0.522
aF0.524
aF0.53
aF0.532
aF0.53
aF0.522
aF0.526
aF0.524
aF0.522
aF0.526
aF0.532
aF0.49
aF0.496
aF0.482
aF0.482
aF0.478
aF0.49
aF0.492
aF0.488
aF0.484
aF0.486
aF0.49
aF0.496
aF0.488
aF0.528
aF0.528
aF0.526
aF0.528
aF0.518
aF0.518
aF0.51
aF0.46
aF0.46
aF0.46
aF0.46
aF0.46
aF0.46
aF0.468
aF0.47
aF0.47
aF0.476
aF0.472
aF0.466
aF0.506
aF0.53
aF0.538
aF0.542
aF0.546
aF0.538
aF0.534
aF0.532
aF0.532
aF0.536
aF0.532
aF0.524
aF0.548
aF0.546
aF0.466
aF0.468
aF0.472
aF0.454
aF0.468
aF0.544
aF0.538
aF0.532
aF0.52
aF0.518
aF0.512
aF0.51
aF0.52
aF0.532
aF0.538
aF0.536
aF0.538
aF0.536
aF0.54
aF0.538
aF0.536
aF0.536
aF0.536
aF0.546
aF0.55
aF0.548
aF0.546
aF0.546
aF0.546
aF0.534
aF0.53
aF0.518
aF0.512
aF0.51
aF0.51
aF0.51
aF0.51
aF0.512
aF0.514
aF0.516
aF0.512
aF0.514
aF0.52
aF0.516
aF0.518
aF0.52
aF0.516
aF0.52
aF0.524
aF0.532
aF0.53
aF0.53
aF0.536
aF0.538
aF0.544
aF0.54
aF0.542
aF0.48
aF0.48
aF0.478
aF0.482
aF0.484
aF0.492
aF0.49
aF0.488
aF0.48
aF0.472
aF0.474
aF0.524
aF0.53
aF0.524
aF0.524
aF0.526
asg6
(g10
S'333333\xe3?'
p29
tp30
Rp31
(lp32
F0.54
aF0.54
aF0.458
aF0.46
aF0.502
aF0.55
aF0.538
aF0.54
aF0.524
aF0.52
aF0.528
aF0.49
aF0.522
aF0.528
aF0.526
aF0.54
aF0.558
aF0.524
aF0.54
aF0.528
aF0.526
aF0.506
aF0.506
aF0.476
aF0.486
aF0.49
aF0.542
aF0.5
aF0.506
aF0.504
aF0.524
aF0.512
aF0.468
aF0.486
aF0.502
aF0.492
aF0.522
aF0.534
aF0.53
aF0.524
aF0.492
aF0.47
aF0.474
aF0.474
aF0.478
aF0.476
aF0.516
aF0.52
aF0.54
aF0.536
aF0.538
aF0.522
aF0.54
aF0.516
aF0.524
aF0.538
aF0.534
aF0.54
aF0.518
aF0.52
aF0.506
aF0.522
aF0.546
aF0.54
aF0.532
aF0.54
aF0.546
aF0.56
aF0.54
aF0.54
aF0.54
aF0.53
aF0.468
aF0.462
aF0.46
aF0.462
aF0.464
aF0.496
aF0.478
aF0.462
aF0.536
aF0.524
aF0.526
aF0.52
aF0.524
aF0.506
aF0.536
aF0.532
aF0.528
aF0.536
aF0.524
aF0.528
aF0.526
aF0.536
aF0.522
aF0.52
aF0.524
aF0.518
aF0.55
aF0.526
aF0.518
aF0.516
aF0.516
aF0.538
aF0.54
aF0.54
aF0.54
aF0.53
aF0.544
aF0.536
aF0.542
aF0.54
aF0.532
aF0.524
aF0.522
aF0.49
aF0.498
aF0.482
aF0.456
aF0.462
aF0.466
aF0.46
aF0.45
aF0.452
aF0.442
aF0.46
aF0.532
aF0.534
aF0.532
aF0.518
aF0.532
aF0.494
aF0.496
aF0.484
aF0.506
aF0.524
aF0.516
aF0.536
aF0.54
aF0.506
aF0.52
aF0.52
aF0.504
aF0.516
aF0.518
aF0.534
aF0.528
aF0.528
aF0.534
aF0.536
aF0.564
aF0.536
aF0.51
aF0.516
aF0.53
aF0.522
aF0.532
aF0.542
aF0.554
aF0.548
aF0.538
aF0.548
aF0.522
aF0.528
aF0.514
aF0.502
aF0.498
aF0.502
aF0.552
aF0.54
aF0.53
aF0.51
aF0.502
aF0.5
aF0.514
aF0.512
aF0.546
aF0.558
aF0.556
aF0.576
aF0.502
aF0.494
aF0.528
aF0.542
aF0.542
aF0.528
aF0.526
aF0.554
aF0.56
aF0.544
aF0.542
aF0.54
aF0.526
aF0.518
aF0.53
aF0.548
aF0.536
aF0.538
aF0.54
aF0.536
aF0.526
aF0.52
aF0.516
aF0.518
aF0.53
aF0.518
aF0.514
aF0.53
aF0.544
aF0.566
aF0.554
aF0.56
aF0.558
aF0.574
aF0.57
aF0.574
aF0.564
aF0.548
aF0.528
aF0.534
aF0.514
aF0.512
aF0.52
aF0.534
aF0.542
aF0.54
aF0.54
aF0.536
aF0.524
aF0.516
aF0.538
aF0.534
aF0.576
aF0.56
aF0.548
aF0.54
aF0.538
aF0.554
aF0.542
aF0.518
aF0.508
aF0.506
aF0.494
aF0.472
aF0.474
aF0.472
aF0.46
aF0.46
aF0.474
aF0.462
aF0.472
aF0.472
aF0.47
aF0.478
aF0.544
aF0.522
aF0.542
aF0.53
aF0.514
aF0.524
aF0.54
aF0.528
aF0.54
aF0.566
aF0.574
aF0.544
aF0.536
aF0.534
aF0.528
aF0.522
aF0.51
aF0.526
aF0.524
aF0.518
aF0.52
aF0.522
aF0.534
aF0.48
aF0.484
aF0.462
aF0.458
aF0.45
aF0.448
aF0.518
aF0.528
aF0.526
aF0.528
aF0.522
aF0.52
aF0.516
aF0.516
aF0.5
aF0.506
aF0.516
aF0.54
aF0.54
aF0.54
aF0.54
aF0.54
aF0.54
aF0.542
aF0.528
aF0.524
aF0.546
aF0.492
aF0.476
aF0.466
aF0.474
aF0.454
aF0.464
aF0.486
aF0.46
aF0.48
aF0.528
aF0.546
aF0.548
aF0.538
aF0.54
aF0.558
aF0.544
aF0.54
aF0.526
aF0.504
aF0.49
aF0.488
aF0.494
aF0.522
aF0.536
aF0.55
aF0.542
aF0.536
aF0.538
aF0.538
aF0.542
aF0.522
aF0.512
aF0.516
aF0.506
aF0.506
aF0.518
aF0.518
aF0.518
aF0.514
aF0.516
aF0.528
aF0.51
aF0.508
aF0.522
aF0.51
aF0.502
aF0.496
aF0.496
aF0.506
aF0.514
aF0.538
aF0.54
aF0.534
aF0.536
aF0.546
aF0.49
aF0.49
aF0.5
aF0.51
aF0.504
aF0.506
aF0.516
aF0.516
aF0.49
aF0.506
aF0.448
aF0.45
aF0.49
aF0.488
aF0.496
aF0.504
aF0.504
aF0.508
aF0.51
aF0.51
aF0.49
aF0.476
aF0.472
aF0.462
aF0.502
aF0.528
aF0.532
aF0.514
aF0.45
aF0.464
aF0.466
aF0.46
aF0.46
aF0.46
aF0.46
aF0.528
aF0.532
aF0.54
aF0.54
aF0.54
aF0.54
aF0.54
aF0.538
aF0.528
aF0.482
aF0.474
aF0.466
aF0.476
aF0.468
aF0.474
aF0.508
aF0.508
aF0.512
aF0.52
aF0.524
aF0.526
aF0.524
aF0.526
aF0.538
aF0.53
aF0.526
aF0.52
aF0.528
aF0.518
aF0.512
aF0.504
aF0.476
aF0.47
aF0.468
aF0.47
aF0.474
aF0.486
aF0.516
aF0.508
aF0.516
aF0.508
aF0.504
aF0.496
aF0.504
aF0.49
aF0.466
aF0.46
aF0.454
aF0.46
aF0.458
aF0.46
aF0.518
aF0.54
aF0.54
aF0.54
aF0.54
aF0.54
aF0.54
aF0.54
aF0.488
aF0.478
aF0.478
aF0.466
aF0.46
aF0.462
aF0.464
aF0.46
aF0.49
aF0.518
aF0.532
aF0.54
aF0.536
aF0.534
aF0.528
aF0.516
aF0.514
aF0.506
aF0.52
aF0.492
aF0.474
aF0.46
aF0.474
aF0.472
aF0.47
aF0.486
aF0.5
aF0.498
aF0.512
aF0.508
aF0.51
aF0.512
aF0.518
aF0.524
aF0.54
aF0.544
aF0.53
aF0.53
aF0.52
aF0.52
aF0.502
aF0.492
aF0.488
aF0.508
aF0.51
aF0.506
aF0.516
aF0.52
aF0.516
aF0.52
aF0.54
aF0.526
aF0.52
aF0.512
aF0.508
aF0.468
aF0.46
aF0.46
aF0.472
aF0.48
aF0.482
aF0.484
aF0.494
aF0.494
aF0.494
aF0.54
aF0.54
aF0.536
aF0.524
aF0.514
aF0.486
aF0.496
aF0.5
aF0.498
aF0.494
aF0.498
aF0.502
aF0.512
aF0.518
aF0.526
aF0.54
aF0.54
aF0.548
aF0.576
aF0.578
aF0.578
aF0.572
aF0.572
aF0.578
aF0.572
aF0.538
aF0.542
aF0.53
aF0.516
aF0.506
aF0.504
aF0.514
aF0.508
aF0.508
aF0.518
aF0.528
aF0.54
aF0.528
aF0.518
aF0.514
aF0.526
aF0.526
aF0.476
aF0.47
aF0.472
aF0.476
aF0.462
aF0.454
aF0.462
aF0.458
aF0.462
aF0.464
aF0.476
aF0.474
aF0.472
aF0.516
aF0.518
aF0.522
aF0.512
aF0.506
aF0.508
aF0.498
aF0.508
aF0.542
aF0.534
aF0.534
aF0.538
aF0.542
aF0.544
aF0.548
aF0.552
aF0.488
aF0.458
aF0.464
aF0.474
aF0.472
aF0.47
aF0.482
aF0.482
aF0.474
aF0.488
aF0.502
aF0.498
aF0.498
aF0.494
aF0.474
aF0.472
aF0.518
aF0.516
aF0.512
aF0.512
aF0.516
aF0.516
aF0.522
aF0.52
aF0.52
aF0.524
aF0.524
aF0.518
aF0.524
aF0.532
aF0.534
aF0.532
aF0.538
aF0.54
aF0.536
aF0.536
aF0.53
aF0.53
aF0.526
aF0.522
aF0.524
aF0.532
aF0.532
aF0.528
aF0.528
aF0.534
aF0.53
aF0.534
aF0.53
aF0.524
aF0.524
aF0.524
aF0.522
aF0.51
aF0.51
aF0.5
aF0.504
aF0.528
aF0.542
aF0.54
aF0.526
aF0.526
aF0.528
aF0.522
aF0.514
aF0.516
aF0.51
aF0.5
aF0.498
aF0.466
aF0.468
aF0.478
aF0.488
aF0.478
aF0.482
aF0.484
aF0.494
aF0.486
aF0.486
aF0.488
aF0.542
aF0.544
aF0.538
aF0.52
aF0.526
aF0.528
aF0.526
aF0.524
aF0.53
aF0.528
aF0.528
aF0.532
aF0.536
aF0.542
aF0.54
aF0.548
aF0.548
aF0.55
aF0.544
aF0.542
aF0.54
aF0.542
aF0.54
aF0.544
aF0.546
aF0.534
aF0.476
aF0.47
aF0.472
aF0.474
aF0.48
aF0.466
aF0.472
aF0.472
aF0.474
aF0.472
aF0.474
aF0.472
aF0.468
aF0.468
aF0.546
aF0.552
aF0.546
aF0.536
aF0.536
aF0.53
aF0.524
aF0.522
aF0.53
aF0.506
aF0.518
aF0.524
aF0.512
aF0.51
aF0.51
aF0.508
aF0.508
aF0.51
aF0.51
aF0.51
aF0.51
aF0.514
aF0.508
aF0.504
aF0.512
aF0.512
aF0.5
aF0.494
aF0.5
aF0.506
aF0.514
aF0.53
aF0.538
aF0.534
aF0.524
aF0.524
aF0.516
aF0.52
aF0.52
aF0.522
aF0.506
aF0.444
aF0.448
aF0.448
aF0.458
aF0.476
aF0.478
aF0.482
aF0.48
aF0.48
aF0.482
aF0.482
aF0.476
aF0.476
aF0.478
aF0.512
aF0.516
aF0.528
aF0.532
aF0.538
aF0.54
aF0.544
aF0.546
aF0.536
aF0.536
aF0.526
aF0.516
aF0.512
aF0.508
aF0.496
aF0.496
aF0.498
aF0.502
aF0.522
aF0.522
aF0.536
aF0.54
aF0.54
aF0.54
aF0.54
aF0.536
aF0.532
aF0.5
aF0.486
aF0.482
aF0.49
aF0.492
aF0.488
aF0.476
aF0.478
aF0.492
aF0.494
aF0.494
aF0.47
aF0.468
aF0.46
aF0.468
aF0.462
aF0.474
aF0.464
aF0.452
aF0.508
aF0.496
aF0.504
aF0.504
aF0.508
aF0.506
aF0.506
aF0.506
aF0.51
aF0.51
aF0.528
aF0.534
aF0.548
aF0.546
aF0.554
aF0.534
aF0.532
aF0.532
aF0.532
aF0.534
aF0.492
aF0.494
aF0.492
aF0.486
aF0.49
aF0.486
aF0.49
aF0.48
aF0.478
aF0.472
aF0.456
aF0.454
aF0.454
aF0.462
aF0.46
aF0.458
aF0.462
aF0.466
aF0.468
aF0.54
aF0.54
aF0.54
aF0.54
aF0.54
aF0.542
aF0.548
aF0.544
aF0.552
aF0.536
aF0.464
aF0.454
aF0.46
aF0.46
aF0.46
aF0.46
aF0.516
aF0.52
aF0.528
aF0.528
aF0.522
aF0.526
aF0.528
aF0.534
aF0.518
aF0.522
aF0.532
aF0.532
aF0.538
aF0.54
aF0.538
aF0.532
aF0.534
aF0.538
aF0.532
aF0.534
aF0.546
aF0.544
aF0.542
aF0.536
aF0.538
aF0.534
aF0.528
aF0.466
aF0.458
aF0.456
aF0.456
aF0.454
aF0.45
aF0.454
aF0.45
aF0.464
aF0.468
aF0.478
aF0.472
aF0.468
aF0.478
aF0.476
aF0.478
aF0.474
aF0.474
aF0.474
aF0.47
aF0.462
aF0.456
aF0.534
aF0.55
aF0.542
aF0.542
aF0.544
aF0.542
aF0.544
aF0.546
aF0.552
aF0.548
aF0.542
aF0.548
aF0.548
aF0.548
aF0.542
aF0.552
aF0.546
aF0.472
aF0.472
aF0.472
aF0.472
aF0.47
aF0.466
aF0.468
aF0.462
aF0.526
aF0.528
aF0.528
aF0.532
aF0.54
aF0.54
aF0.542
aF0.54
aF0.54
aF0.538
aF0.458
aF0.454
aF0.458
aF0.458
aF0.46
aF0.46
aF0.46
aF0.46
aF0.462
aF0.46
aF0.474
aF0.536
aF0.536
aF0.536
aF0.536
aF0.536
aF0.534
aF0.534
aF0.534
aF0.468
aF0.468
aF0.462
aF0.464
aF0.468
aF0.532
aF0.534
aF0.536
aF0.536
aF0.538
aF0.538
aF0.54
aF0.542
aF0.542
aF0.544
aF0.55
aF0.544
aF0.544
aF0.544
aF0.544
aF0.538
aF0.53
aF0.458
aF0.448
aF0.458
aF0.456
aF0.46
aF0.458
aF0.456
aF0.456
aF0.456
aF0.454
asg6
(g10
S'\x9a\x99\x99\x99\x99\x99\xb9?'
p33
tp34
Rp35
(lp36
F0.54
aF0.532
aF0.572
aF0.542
aF0.598
aF0.57
aF0.56
aF0.556
aF0.54
aF0.462
aF0.488
aF0.558
aF0.55
aF0.552
aF0.48
aF0.476
aF0.518
aF0.464
aF0.49
aF0.548
aF0.566
aF0.59
aF0.522
aF0.536
aF0.536
aF0.446
aF0.534
aF0.494
aF0.42
aF0.418
aF0.414
aF0.54
aF0.536
aF0.532
aF0.48
aF0.484
aF0.516
aF0.556
aF0.536
aF0.536
aF0.556
aF0.468
aF0.472
aF0.562
aF0.552
aF0.518
aF0.48
aF0.476
aF0.468
aF0.546
aF0.552
aF0.55
aF0.542
aF0.452
aF0.46
aF0.46
aF0.556
aF0.546
aF0.546
aF0.55
aF0.552
aF0.51
aF0.456
aF0.466
aF0.464
aF0.474
aF0.486
aF0.53
aF0.516
aF0.514
aF0.49
aF0.476
aF0.524
aF0.514
aF0.51
aF0.528
aF0.482
aF0.5
aF0.504
aF0.498
aF0.484
aF0.46
aF0.476
aF0.534
aF0.54
aF0.54
aF0.486
aF0.454
aF0.474
aF0.502
aF0.526
aF0.522
aF0.522
aF0.46
aF0.46
aF0.46
aF0.466
aF0.546
aF0.538
aF0.54
aF0.54
aF0.54
aF0.538
aF0.524
aF0.5
aF0.528
aF0.542
aF0.526
aF0.532
aF0.53
aF0.494
aF0.474
aF0.516
aF0.522
aF0.542
aF0.532
aF0.534
aF0.562
aF0.54
aF0.538
aF0.466
aF0.46
aF0.496
aF0.528
aF0.536
aF0.566
aF0.58
aF0.556
aF0.546
aF0.542
aF0.55
aF0.544
aF0.562
aF0.572
aF0.588
aF0.572
aF0.568
aF0.54
aF0.466
aF0.492
aF0.574
aF0.566
aF0.556
aF0.53
aF0.526
aF0.524
aF0.53
aF0.54
aF0.55
aF0.566
aF0.568
aF0.576
aF0.56
aF0.476
aF0.556
aF0.54
aF0.534
aF0.498
aF0.476
aF0.502
aF0.496
aF0.578
aF0.558
aF0.57
aF0.59
aF0.58
aF0.556
aF0.518
aF0.524
aF0.588
aF0.576
aF0.576
aF0.554
aF0.46
aF0.478
aF0.558
aF0.542
aF0.544
aF0.57
aF0.6
aF0.574
aF0.588
aF0.56
aF0.556
aF0.598
aF0.612
aF0.632
aF0.572
aF0.578
aF0.574
aF0.554
aF0.57
aF0.606
aF0.588
aF0.614
aF0.576
aF0.556
aF0.54
aF0.548
aF0.552
aF0.618
aF0.592
aF0.546
aF0.572
aF0.628
aF0.622
aF0.632
aF0.626
aF0.578
aF0.56
aF0.59
aF0.496
aF0.454
aF0.448
aF0.474
aF0.538
aF0.586
aF0.512
aF0.522
aF0.594
aF0.622
aF0.606
aF0.6
aF0.622
aF0.59
aF0.58
aF0.572
aF0.556
aF0.548
aF0.512
aF0.562
aF0.556
aF0.59
aF0.554
aF0.538
aF0.566
aF0.576
aF0.572
aF0.546
aF0.462
aF0.6
aF0.604
aF0.592
aF0.608
aF0.596
aF0.604
aF0.59
aF0.598
aF0.518
aF0.508
aF0.602
aF0.566
aF0.572
aF0.532
aF0.524
aF0.564
aF0.598
aF0.6
aF0.612
aF0.564
aF0.556
aF0.574
aF0.572
aF0.574
aF0.608
aF0.51
aF0.528
aF0.622
aF0.618
aF0.62
aF0.468
aF0.46
aF0.46
aF0.596
aF0.578
aF0.564
aF0.588
aF0.602
aF0.582
aF0.586
aF0.604
aF0.57
aF0.576
aF0.586
aF0.586
aF0.586
aF0.582
aF0.598
aF0.59
aF0.55
aF0.474
aF0.47
aF0.442
aF0.51
aF0.562
aF0.552
aF0.584
aF0.59
aF0.594
aF0.588
aF0.602
aF0.524
aF0.508
aF0.456
aF0.458
aF0.45
aF0.508
aF0.526
aF0.506
aF0.486
aF0.49
aF0.464
aF0.456
aF0.474
aF0.522
aF0.524
aF0.498
aF0.448
aF0.448
aF0.464
aF0.498
aF0.54
aF0.562
aF0.59
aF0.59
aF0.592
aF0.61
aF0.62
aF0.61
aF0.59
aF0.57
aF0.546
aF0.544
aF0.542
aF0.562
aF0.604
aF0.606
aF0.62
aF0.602
aF0.554
aF0.524
aF0.508
aF0.526
aF0.564
aF0.584
aF0.608
aF0.612
aF0.538
aF0.498
aF0.53
aF0.532
aF0.568
aF0.586
aF0.574
aF0.542
aF0.47
aF0.516
aF0.536
aF0.56
aF0.582
aF0.596
aF0.606
aF0.646
aF0.636
aF0.63
aF0.626
aF0.592
aF0.57
aF0.56
aF0.558
aF0.534
aF0.5
aF0.484
aF0.454
aF0.486
aF0.566
aF0.576
aF0.578
aF0.566
aF0.576
aF0.56
aF0.54
aF0.54
aF0.544
aF0.556
aF0.534
aF0.536
aF0.532
aF0.536
aF0.54
aF0.49
aF0.48
aF0.482
aF0.504
aF0.576
aF0.59
aF0.594
aF0.6
aF0.59
aF0.596
aF0.51
aF0.498
aF0.458
aF0.476
aF0.598
aF0.558
aF0.504
aF0.498
aF0.552
aF0.57
aF0.574
aF0.562
aF0.568
aF0.552
aF0.532
aF0.518
aF0.514
aF0.576
aF0.524
aF0.532
aF0.534
aF0.594
aF0.59
aF0.566
aF0.576
aF0.582
aF0.534
aF0.506
aF0.494
aF0.472
aF0.46
aF0.46
aF0.47
aF0.496
aF0.512
aF0.528
aF0.516
aF0.524
aF0.534
aF0.544
aF0.528
aF0.538
aF0.536
aF0.548
aF0.538
aF0.534
aF0.552
aF0.528
aF0.508
aF0.52
aF0.558
aF0.54
aF0.548
aF0.554
aF0.56
aF0.57
aF0.556
aF0.528
aF0.544
aF0.574
aF0.556
aF0.534
aF0.45
aF0.442
aF0.536
aF0.586
aF0.59
aF0.582
aF0.584
aF0.578
aF0.578
aF0.582
aF0.562
aF0.564
aF0.572
aF0.59
aF0.6
aF0.576
aF0.538
aF0.588
aF0.6
aF0.54
aF0.472
aF0.482
aF0.586
aF0.574
aF0.57
aF0.576
aF0.59
aF0.6
aF0.526
aF0.51
aF0.498
aF0.514
aF0.528
aF0.54
aF0.532
aF0.584
aF0.596
aF0.596
aF0.612
aF0.612
aF0.616
aF0.596
aF0.566
aF0.542
aF0.534
aF0.536
aF0.614
aF0.618
aF0.622
aF0.634
aF0.622
aF0.552
aF0.536
aF0.55
aF0.564
aF0.55
aF0.56
aF0.558
aF0.546
aF0.542
aF0.558
aF0.578
aF0.528
aF0.516
aF0.534
aF0.572
aF0.544
aF0.52
aF0.51
aF0.508
aF0.518
aF0.548
aF0.556
aF0.566
aF0.562
aF0.552
aF0.544
aF0.546
aF0.544
aF0.562
aF0.576
aF0.572
aF0.558
aF0.554
aF0.538
aF0.532
aF0.564
aF0.562
aF0.596
aF0.598
aF0.568
aF0.566
aF0.542
aF0.532
aF0.504
aF0.486
aF0.502
aF0.512
aF0.5
aF0.51
aF0.536
aF0.54
aF0.54
aF0.54
aF0.54
aF0.546
aF0.556
aF0.572
aF0.542
aF0.564
aF0.562
aF0.546
aF0.502
aF0.478
aF0.502
aF0.53
aF0.558
aF0.568
aF0.576
aF0.568
aF0.566
aF0.564
aF0.56
aF0.564
aF0.546
aF0.52
aF0.508
aF0.48
aF0.49
aF0.524
aF0.532
aF0.53
aF0.542
aF0.52
aF0.534
aF0.56
aF0.588
aF0.598
aF0.6
aF0.588
aF0.58
aF0.576
aF0.57
aF0.57
aF0.572
aF0.54
aF0.522
aF0.516
aF0.51
aF0.526
aF0.534
aF0.54
aF0.542
aF0.54
aF0.538
aF0.544
aF0.542
aF0.55
aF0.536
aF0.514
aF0.46
aF0.46
aF0.466
aF0.482
aF0.496
aF0.518
aF0.528
aF0.526
aF0.528
aF0.53
aF0.526
aF0.532
aF0.512
aF0.502
aF0.494
aF0.486
aF0.512
aF0.568
aF0.566
aF0.56
aF0.538
aF0.546
aF0.542
aF0.542
aF0.542
aF0.546
aF0.548
aF0.554
aF0.556
aF0.57
aF0.588
aF0.574
aF0.592
aF0.584
aF0.568
aF0.548
aF0.556
aF0.564
aF0.56
aF0.568
aF0.53
aF0.526
aF0.514
aF0.458
aF0.45
aF0.452
aF0.46
aF0.534
aF0.58
aF0.558
aF0.544
aF0.552
aF0.576
aF0.586
aF0.582
aF0.576
aF0.582
aF0.592
aF0.6
aF0.596
aF0.596
aF0.588
aF0.592
aF0.58
aF0.578
aF0.574
aF0.552
aF0.55
aF0.572
aF0.574
aF0.52
aF0.5
aF0.536
aF0.562
aF0.594
aF0.598
aF0.596
aF0.592
aF0.592
aF0.596
aF0.598
aF0.6
aF0.598
aF0.598
aF0.594
aF0.592
aF0.592
aF0.548
aF0.518
aF0.504
aF0.5
aF0.474
aF0.462
aF0.472
aF0.492
aF0.484
aF0.504
aF0.542
aF0.54
aF0.54
aF0.54
aF0.54
aF0.54
aF0.544
aF0.578
aF0.572
aF0.576
aF0.576
aF0.58
aF0.572
aF0.576
aF0.584
aF0.592
aF0.592
aF0.598
aF0.592
aF0.588
aF0.586
aF0.586
aF0.592
aF0.594
aF0.584
aF0.58
aF0.58
aF0.562
aF0.502
aF0.528
aF0.566
aF0.564
aF0.57
aF0.574
aF0.574
aF0.574
aF0.568
aF0.556
aF0.472
aF0.474
aF0.53
aF0.58
aF0.536
aF0.514
aF0.526
aF0.576
aF0.604
aF0.606
aF0.602
aF0.6
aF0.604
aF0.608
aF0.608
aF0.568
aF0.566
aF0.584
aF0.506
aF0.504
aF0.574
aF0.59
aF0.596
aF0.59
aF0.58
aF0.582
aF0.582
aF0.582
aF0.586
aF0.588
aF0.58
aF0.58
aF0.574
aF0.57
aF0.578
aF0.566
aF0.568
aF0.56
aF0.55
aF0.548
aF0.538
aF0.532
aF0.542
aF0.54
aF0.542
aF0.56
aF0.55
aF0.532
aF0.514
aF0.506
aF0.538
aF0.576
aF0.576
aF0.55
aF0.546
aF0.546
aF0.546
aF0.55
aF0.562
aF0.578
aF0.58
aF0.572
aF0.576
aF0.566
aF0.564
aF0.484
aF0.476
aF0.468
aF0.476
aF0.486
aF0.564
aF0.57
aF0.558
aF0.552
aF0.556
aF0.558
aF0.556
aF0.558
aF0.554
aF0.554
aF0.556
aF0.544
aF0.544
aF0.552
aF0.552
aF0.552
aF0.546
aF0.542
aF0.534
aF0.536
aF0.55
aF0.554
aF0.558
aF0.55
aF0.566
aF0.586
aF0.558
aF0.546
aF0.462
aF0.46
aF0.462
aF0.49
aF0.504
aF0.514
aF0.532
aF0.53
aF0.46
aF0.478
aF0.484
aF0.528
aF0.55
aF0.554
aF0.556
aF0.562
aF0.556
aF0.56
aF0.57
aF0.582
aF0.58
aF0.58
aF0.586
aF0.594
aF0.594
aF0.594
aF0.59
aF0.584
aF0.57
aF0.548
aF0.554
aF0.572
aF0.57
aF0.556
aF0.536
aF0.532
aF0.592
aF0.59
aF0.588
aF0.582
aF0.572
aF0.578
aF0.572
aF0.58
aF0.578
aF0.58
aF0.582
aF0.594
aF0.59
aF0.592
aF0.588
aF0.584
aF0.584
aF0.576
aF0.572
aF0.56
aF0.558
aF0.572
aF0.59
aF0.592
aF0.58
aF0.55
aF0.554
aF0.554
aF0.546
aF0.548
aF0.544
aF0.528
aF0.456
aF0.46
aF0.516
aF0.522
aF0.53
aF0.574
aF0.574
aF0.574
aF0.572
aF0.566
aF0.574
aF0.586
aF0.59
aF0.596
aF0.604
aF0.58
aF0.578
aF0.578
aF0.574
aF0.582
aF0.586
aF0.584
aF0.568
aF0.556
aF0.558
aF0.57
aF0.524
aF0.532
aF0.526
aF0.528
aF0.528
aF0.53
aF0.524
aF0.512
aF0.504
aF0.502
aF0.496
aF0.492
aF0.494
aF0.508
aF0.518
aF0.514
aF0.524
aF0.526
aF0.578
aF0.576
aF0.57
aF0.57
aF0.572
aF0.572
aF0.578
aF0.57
aF0.576
aF0.568
aF0.566
aF0.58
aF0.586
aF0.582
aF0.576
aF0.576
aF0.576
aF0.574
aF0.576
aF0.526
aF0.562
aF0.522
aF0.54
aF0.538
aF0.536
aF0.578
aF0.572
aF0.572
aF0.572
aF0.57
aF0.574
aF0.572
aF0.572
asg6
(g10
S'ffffff\xe6?'
p37
tp38
Rp39
(lp40
F0.46
aF0.458
aF0.46
aF0.498
aF0.518
aF0.506
aF0.516
aF0.46
aF0.456
aF0.498
aF0.51
aF0.534
aF0.536
aF0.506
aF0.4
aF0.466
aF0.462
aF0.496
aF0.542
aF0.548
aF0.56
aF0.548
aF0.522
aF0.49
aF0.474
aF0.444
aF0.446
aF0.45
aF0.48
aF0.496
aF0.51
aF0.526
aF0.54
aF0.538
aF0.506
aF0.528
aF0.536
aF0.538
aF0.54
aF0.516
aF0.54
aF0.54
aF0.52
aF0.486
aF0.47
aF0.484
aF0.526
aF0.528
aF0.536
aF0.508
aF0.502
aF0.488
aF0.512
aF0.526
aF0.498
aF0.478
aF0.464
aF0.448
aF0.422
aF0.442
aF0.47
aF0.484
aF0.496
aF0.482
aF0.47
aF0.458
aF0.478
aF0.482
aF0.49
aF0.466
aF0.456
aF0.46
aF0.522
aF0.524
aF0.54
aF0.54
aF0.54
aF0.54
aF0.54
aF0.54
aF0.556
aF0.496
aF0.5
aF0.502
aF0.486
aF0.49
aF0.516
aF0.51
aF0.494
aF0.494
aF0.5
aF0.502
aF0.514
aF0.506
aF0.53
aF0.548
aF0.54
aF0.546
aF0.53
aF0.506
aF0.496
aF0.504
aF0.502
aF0.512
aF0.52
aF0.54
aF0.538
aF0.486
aF0.478
aF0.472
aF0.482
aF0.5
aF0.498
aF0.498
aF0.494
aF0.476
aF0.484
aF0.48
aF0.472
aF0.458
aF0.46
aF0.46
aF0.462
aF0.46
aF0.484
aF0.478
aF0.486
aF0.484
aF0.51
aF0.536
aF0.536
aF0.54
aF0.542
aF0.538
aF0.54
aF0.54
aF0.54
aF0.548
aF0.54
aF0.546
aF0.54
aF0.54
aF0.54
aF0.54
aF0.48
aF0.464
aF0.464
aF0.458
aF0.458
aF0.46
aF0.48
aF0.538
aF0.54
aF0.54
aF0.54
aF0.524
aF0.512
aF0.482
aF0.494
aF0.504
aF0.514
aF0.52
aF0.522
aF0.53
aF0.528
aF0.538
aF0.536
aF0.526
aF0.496
aF0.47
aF0.464
aF0.462
aF0.452
aF0.466
aF0.48
aF0.478
aF0.47
aF0.46
aF0.472
aF0.532
aF0.52
aF0.512
aF0.538
aF0.538
aF0.524
aF0.53
aF0.52
aF0.526
aF0.538
aF0.536
aF0.532
aF0.528
aF0.512
aF0.514
aF0.542
aF0.556
aF0.55
aF0.522
aF0.516
aF0.504
aF0.522
aF0.518
aF0.514
aF0.508
aF0.516
aF0.492
aF0.472
aF0.462
aF0.462
aF0.468
aF0.484
aF0.512
aF0.53
aF0.508
aF0.542
aF0.538
aF0.538
aF0.51
aF0.476
aF0.476
aF0.46
aF0.46
aF0.456
aF0.468
aF0.508
aF0.51
aF0.54
aF0.54
aF0.544
aF0.556
aF0.548
aF0.554
aF0.496
aF0.47
aF0.462
aF0.488
aF0.494
aF0.494
aF0.494
aF0.484
aF0.492
aF0.486
aF0.476
aF0.482
aF0.482
aF0.466
aF0.46
aF0.464
aF0.462
aF0.462
aF0.462
aF0.472
aF0.52
aF0.536
aF0.536
aF0.54
aF0.54
aF0.54
aF0.54
aF0.54
aF0.508
aF0.504
aF0.5
aF0.504
aF0.514
aF0.516
aF0.52
aF0.518
aF0.53
aF0.52
aF0.508
aF0.506
aF0.51
aF0.508
aF0.51
aF0.512
aF0.53
aF0.542
aF0.526
aF0.514
aF0.464
aF0.464
aF0.462
aF0.468
aF0.456
aF0.454
aF0.47
aF0.458
aF0.452
aF0.444
aF0.464
aF0.478
aF0.476
aF0.484
aF0.486
aF0.528
aF0.518
aF0.516
aF0.506
aF0.506
aF0.506
aF0.502
aF0.506
aF0.512
aF0.506
aF0.498
aF0.5
aF0.504
aF0.516
aF0.516
aF0.538
aF0.536
aF0.522
aF0.52
aF0.536
aF0.538
aF0.538
aF0.538
aF0.52
aF0.514
aF0.528
aF0.524
aF0.524
aF0.522
aF0.542
aF0.54
aF0.53
aF0.53
aF0.538
aF0.528
aF0.528
aF0.526
aF0.532
aF0.53
aF0.53
aF0.538
aF0.46
aF0.462
aF0.456
aF0.45
aF0.45
aF0.454
aF0.466
aF0.466
aF0.468
aF0.464
aF0.46
aF0.452
aF0.464
aF0.474
aF0.482
aF0.484
aF0.492
aF0.528
aF0.534
aF0.54
aF0.54
aF0.536
aF0.534
aF0.524
aF0.522
aF0.522
aF0.522
aF0.53
aF0.534
aF0.532
aF0.528
aF0.526
aF0.52
aF0.51
aF0.518
aF0.526
aF0.53
aF0.526
aF0.532
aF0.532
aF0.536
aF0.538
aF0.534
aF0.534
aF0.536
aF0.486
aF0.474
aF0.478
aF0.474
aF0.482
aF0.472
aF0.478
aF0.476
aF0.496
aF0.484
aF0.528
aF0.526
aF0.528
aF0.528
aF0.532
aF0.538
aF0.55
aF0.546
aF0.542
aF0.54
aF0.528
aF0.534
aF0.536
aF0.536
aF0.54
aF0.548
aF0.55
aF0.538
aF0.546
aF0.544
aF0.53
aF0.53
aF0.514
aF0.518
aF0.51
aF0.528
aF0.526
aF0.534
aF0.534
aF0.54
aF0.54
aF0.538
aF0.538
aF0.54
aF0.536
aF0.536
aF0.54
aF0.538
aF0.534
aF0.534
aF0.546
aF0.546
aF0.53
aF0.53
aF0.528
aF0.53
aF0.532
aF0.538
aF0.542
aF0.54
aF0.536
aF0.48
aF0.478
aF0.478
aF0.472
aF0.47
aF0.476
aF0.47
aF0.474
aF0.472
aF0.47
aF0.484
aF0.486
aF0.476
aF0.48
aF0.518
aF0.522
aF0.528
aF0.526
aF0.54
aF0.542
aF0.54
aF0.54
aF0.542
aF0.54
aF0.54
aF0.528
aF0.522
aF0.524
aF0.478
aF0.476
aF0.476
aF0.47
aF0.47
aF0.468
aF0.464
aF0.468
aF0.468
aF0.46
aF0.46
aF0.458
aF0.456
aF0.452
aF0.468
aF0.526
aF0.526
aF0.524
aF0.514
aF0.53
aF0.528
aF0.522
aF0.528
aF0.526
aF0.53
aF0.476
aF0.478
aF0.486
aF0.488
aF0.486
aF0.488
aF0.48
aF0.474
aF0.474
aF0.474
aF0.464
aF0.462
aF0.526
aF0.528
aF0.526
aF0.526
aF0.526
aF0.532
aF0.534
aF0.536
aF0.532
aF0.532
aF0.534
aF0.534
aF0.532
aF0.536
aF0.542
aF0.54
aF0.542
aF0.538
aF0.534
aF0.53
aF0.522
aF0.462
aF0.468
aF0.47
aF0.474
aF0.474
aF0.47
aF0.47
aF0.47
aF0.474
aF0.482
aF0.482
aF0.482
aF0.484
aF0.538
aF0.538
aF0.54
aF0.538
aF0.534
aF0.526
aF0.516
aF0.512
aF0.514
aF0.516
aF0.514
aF0.516
aF0.518
aF0.528
aF0.526
aF0.528
aF0.534
aF0.538
aF0.54
aF0.54
aF0.538
aF0.54
aF0.54
aF0.54
aF0.54
aF0.54
aF0.48
aF0.482
aF0.474
aF0.466
aF0.466
aF0.466
aF0.464
aF0.464
aF0.464
aF0.464
aF0.462
aF0.464
aF0.462
aF0.472
aF0.47
aF0.47
aF0.528
aF0.526
aF0.528
aF0.526
aF0.526
aF0.526
aF0.518
aF0.526
aF0.52
aF0.52
aF0.518
aF0.516
aF0.526
aF0.528
aF0.522
aF0.522
aF0.522
aF0.52
aF0.468
aF0.474
aF0.468
aF0.468
aF0.47
aF0.46
aF0.46
aF0.46
aF0.46
aF0.51
aF0.512
aF0.518
aF0.534
aF0.532
aF0.53
aF0.534
aF0.532
aF0.53
aF0.524
aF0.514
aF0.51
aF0.508
aF0.52
aF0.52
aF0.524
aF0.518
aF0.52
aF0.518
aF0.52
aF0.516
aF0.514
aF0.508
aF0.512
aF0.528
aF0.526
aF0.526
aF0.532
aF0.53
aF0.53
aF0.526
aF0.524
aF0.526
aF0.52
aF0.52
aF0.514
aF0.512
aF0.516
aF0.516
aF0.516
aF0.518
aF0.512
aF0.508
aF0.52
aF0.522
aF0.522
aF0.522
aF0.528
aF0.524
aF0.538
aF0.536
aF0.534
aF0.54
aF0.534
aF0.54
aF0.54
aF0.482
aF0.48
aF0.48
aF0.476
aF0.476
aF0.474
aF0.47
aF0.464
aF0.466
aF0.47
aF0.466
aF0.466
aF0.532
aF0.528
aF0.53
aF0.53
aF0.536
aF0.528
aF0.526
aF0.52
aF0.526
aF0.526
aF0.528
aF0.534
aF0.532
aF0.534
aF0.53
aF0.528
aF0.534
aF0.53
aF0.532
aF0.53
aF0.528
aF0.532
aF0.534
aF0.534
aF0.53
aF0.532
aF0.534
aF0.54
aF0.54
aF0.528
aF0.526
aF0.476
aF0.472
aF0.472
aF0.47
aF0.468
aF0.468
aF0.466
aF0.464
aF0.47
aF0.522
aF0.524
aF0.52
aF0.526
aF0.528
aF0.528
aF0.536
aF0.54
aF0.54
aF0.544
aF0.54
aF0.542
aF0.538
aF0.538
aF0.534
aF0.534
aF0.534
aF0.532
aF0.532
aF0.47
aF0.472
aF0.472
aF0.472
aF0.538
aF0.54
aF0.54
aF0.54
aF0.54
aF0.54
aF0.54
aF0.486
aF0.49
aF0.49
aF0.488
aF0.486
aF0.484
aF0.482
aF0.472
aF0.478
aF0.478
aF0.474
aF0.476
aF0.476
aF0.528
aF0.524
aF0.522
aF0.522
aF0.526
aF0.532
aF0.526
aF0.522
aF0.52
aF0.524
aF0.53
aF0.53
aF0.532
aF0.536
aF0.522
aF0.462
aF0.46
aF0.458
aF0.46
aF0.46
aF0.46
aF0.466
aF0.472
aF0.476
aF0.538
aF0.538
aF0.536
aF0.538
aF0.534
aF0.54
aF0.538
aF0.538
aF0.538
aF0.542
aF0.54
aF0.542
aF0.544
aF0.546
aF0.54
aF0.534
aF0.53
aF0.466
aF0.458
aF0.462
aF0.464
aF0.46
aF0.456
aF0.46
aF0.462
aF0.466
aF0.462
aF0.47
aF0.472
aF0.47
aF0.476
aF0.536
aF0.534
aF0.534
aF0.54
aF0.538
aF0.536
aF0.534
aF0.532
aF0.534
aF0.536
aF0.536
aF0.534
aF0.534
aF0.536
aF0.536
aF0.534
aF0.534
aF0.534
aF0.534
aF0.532
aF0.532
aF0.534
aF0.536
aF0.54
aF0.538
aF0.542
aF0.542
aF0.54
aF0.54
aF0.54
aF0.542
aF0.542
aF0.48
aF0.476
aF0.472
aF0.472
aF0.468
aF0.47
aF0.464
aF0.464
aF0.464
aF0.464
aF0.462
aF0.462
aF0.468
aF0.456
aF0.458
aF0.534
aF0.534
aF0.534
aF0.538
aF0.538
aF0.54
aF0.542
aF0.548
aF0.54
aF0.54
aF0.54
aF0.54
aF0.536
aF0.536
aF0.536
aF0.536
aF0.536
aF0.534
aF0.532
aF0.534
aF0.538
aF0.536
aF0.538
aF0.54
aF0.538
aF0.534
aF0.538
aF0.538
aF0.542
aF0.532
aF0.456
aF0.454
aF0.456
aF0.458
aF0.458
aF0.458
aF0.458
aF0.464
aF0.46
aF0.46
aF0.47
aF0.47
aF0.468
aF0.542
aF0.54
aF0.54
aF0.544
aF0.546
aF0.54
aF0.538
aF0.534
aF0.53
aF0.462
aF0.464
aF0.466
aF0.468
aF0.468
aF0.468
aF0.462
aF0.468
aF0.464
aF0.468
aF0.464
aF0.462
aF0.536
aF0.536
aF0.536
aF0.536
aF0.542
aF0.54
aF0.538
aF0.542
aF0.54
aF0.54
aF0.53
aF0.532
aF0.53
aF0.536
aF0.536
aF0.526
aF0.522
aF0.524
aF0.524
aF0.524
aF0.522
aF0.524
aF0.528
aF0.528
aF0.526
aF0.53
aF0.53
aF0.53
aF0.532
aF0.534
aF0.538
aF0.542
aF0.54
aF0.54
aF0.54
aF0.54
aF0.54
aF0.54
aF0.54
aF0.54
aF0.472
aF0.468
aF0.468
aF0.47
aF0.47
aF0.466
aF0.452
aF0.454
aF0.45
aF0.454
aF0.454
aF0.454
aF0.458
aF0.456
aF0.462
aF0.534
aF0.536
aF0.532
aF0.538
aF0.534
aF0.538
aF0.54
aF0.536
aF0.534
aF0.532
aF0.542
aF0.544
aF0.464
aF0.468
aF0.47
aF0.468
aF0.464
aF0.464
ass.